
red_plus_prognosing.elf:     file format elf32-littlenios2
red_plus_prognosing.elf
architecture: nios2, flags 0x00000112:
EXEC_P, HAS_SYMS, D_PAGED
start address 0x020001b8

Program Header:
    LOAD off    0x00001000 vaddr 0x02000000 paddr 0x02000000 align 2**12
         filesz 0x00000020 memsz 0x00000020 flags r-x
    LOAD off    0x00001020 vaddr 0x02000020 paddr 0x02000020 align 2**12
         filesz 0x0001e33c memsz 0x0001e33c flags r-x
    LOAD off    0x0001f35c vaddr 0x0201e35c paddr 0x02020498 align 2**12
         filesz 0x0000213c memsz 0x0000213c flags rw-
    LOAD off    0x000215d4 vaddr 0x020225d4 paddr 0x020225d4 align 2**12
         filesz 0x00000000 memsz 0x0004b35c flags rw-

Sections:
Idx Name          Size      VMA       LMA       File off  Algn
  0 .entry        00000020  02000000  02000000  00001000  2**5
                  CONTENTS, ALLOC, LOAD, READONLY, CODE
  1 .exceptions   00000198  02000020  02000020  00001020  2**2
                  CONTENTS, ALLOC, LOAD, READONLY, CODE
  2 .text         0000dd2c  020001b8  020001b8  000011b8  2**2
                  CONTENTS, ALLOC, LOAD, READONLY, CODE
  3 .rodata       00010478  0200dee4  0200dee4  0000eee4  2**2
                  CONTENTS, ALLOC, LOAD, READONLY, DATA
  4 .rwdata       0000213c  0201e35c  02020498  0001f35c  2**2
                  CONTENTS, ALLOC, LOAD, DATA, SMALL_DATA
  5 .bss          0004b35c  020225d4  020225d4  000215d4  2**2
                  ALLOC, SMALL_DATA
  6 .comment      00000023  00000000  00000000  00021498  2**0
                  CONTENTS, READONLY
  7 .debug_aranges 00000f00  00000000  00000000  000214c0  2**3
                  CONTENTS, READONLY, DEBUGGING
  8 .debug_info   00024ea1  00000000  00000000  000223c0  2**0
                  CONTENTS, READONLY, DEBUGGING
  9 .debug_abbrev 00009de6  00000000  00000000  00047261  2**0
                  CONTENTS, READONLY, DEBUGGING
 10 .debug_line   0000aa91  00000000  00000000  00051047  2**0
                  CONTENTS, READONLY, DEBUGGING
 11 .debug_frame  00001c30  00000000  00000000  0005bad8  2**2
                  CONTENTS, READONLY, DEBUGGING
 12 .debug_str    0000300b  00000000  00000000  0005d708  2**0
                  CONTENTS, READONLY, DEBUGGING
 13 .debug_loc    000110d1  00000000  00000000  00060713  2**0
                  CONTENTS, READONLY, DEBUGGING
 14 .debug_alt_sim_info 00000060  00000000  00000000  000717e4  2**2
                  CONTENTS, READONLY, DEBUGGING
 15 .debug_ranges 00000a58  00000000  00000000  00071848  2**3
                  CONTENTS, READONLY, DEBUGGING
 16 .thread_model 00000003  00000000  00000000  0007599d  2**0
                  CONTENTS, READONLY
 17 .cpu          00000003  00000000  00000000  000759a0  2**0
                  CONTENTS, READONLY
 18 .qsys         00000001  00000000  00000000  000759a3  2**0
                  CONTENTS, READONLY
 19 .simulation_enabled 00000001  00000000  00000000  000759a4  2**0
                  CONTENTS, READONLY
 20 .sysid_hash   00000004  00000000  00000000  000759a5  2**0
                  CONTENTS, READONLY
 21 .sysid_base   00000004  00000000  00000000  000759a9  2**0
                  CONTENTS, READONLY
 22 .sysid_time   00000004  00000000  00000000  000759ad  2**0
                  CONTENTS, READONLY
 23 .stderr_dev   00000009  00000000  00000000  000759b1  2**0
                  CONTENTS, READONLY
 24 .stdin_dev    00000009  00000000  00000000  000759ba  2**0
                  CONTENTS, READONLY
 25 .stdout_dev   00000009  00000000  00000000  000759c3  2**0
                  CONTENTS, READONLY
 26 .sopc_system_name 00000006  00000000  00000000  000759cc  2**0
                  CONTENTS, READONLY
 27 .quartus_project_dir 0000002c  00000000  00000000  000759d2  2**0
                  CONTENTS, READONLY
 28 .jdi          00004764  00000000  00000000  000759fe  2**0
                  CONTENTS, READONLY
 29 .sopcinfo     0009db75  00000000  00000000  0007a162  2**0
                  CONTENTS, READONLY
SYMBOL TABLE:
02000000 l    d  .entry	00000000 .entry
02000020 l    d  .exceptions	00000000 .exceptions
020001b8 l    d  .text	00000000 .text
0200dee4 l    d  .rodata	00000000 .rodata
0201e35c l    d  .rwdata	00000000 .rwdata
020225d4 l    d  .bss	00000000 .bss
00000000 l    d  .comment	00000000 .comment
00000000 l    d  .debug_aranges	00000000 .debug_aranges
00000000 l    d  .debug_info	00000000 .debug_info
00000000 l    d  .debug_abbrev	00000000 .debug_abbrev
00000000 l    d  .debug_line	00000000 .debug_line
00000000 l    d  .debug_frame	00000000 .debug_frame
00000000 l    d  .debug_str	00000000 .debug_str
00000000 l    d  .debug_loc	00000000 .debug_loc
00000000 l    d  .debug_alt_sim_info	00000000 .debug_alt_sim_info
00000000 l    d  .debug_ranges	00000000 .debug_ranges
00000000 l    df *ABS*	00000000 ../red_plus_prognosing_bsp//obj/HAL/src/crt0.o
02000200 l       .text	00000000 alt_after_alt_main
00000000 l    df *ABS*	00000000 alt_exception_entry.o
02000094 l       .exceptions	00000000 alt_exception_unknown
00000000 l    df *ABS*	00000000 alt_irq_handler.c
00000000 l    df *ABS*	00000000 specs.cpp
00000000 l    df *ABS*	00000000 LCD.c
00000000 l    df *ABS*	00000000 SCCB.c
00000000 l    df *ABS*	00000000 delay.c
00000000 l    df *ABS*	00000000 ov7660.c
00000000 l    df *ABS*	00000000 red_plus_main.c
00000000 l    df *ABS*	00000000 specs.cpp
00000000 l    df *ABS*	00000000 sf_isnanf.c
00000000 l    df *ABS*	00000000 fp-bit.c
00000000 l    df *ABS*	00000000 fp-bit.c
02001fe4 l     F .text	00000354 _fpadd_parts
00000000 l    df *ABS*	00000000 fp-bit.c
00000000 l    df *ABS*	00000000 fp-bit.c
00000000 l    df *ABS*	00000000 fp-bit.c
00000000 l    df *ABS*	00000000 fp-bit.c
00000000 l    df *ABS*	00000000 fp-bit.c
00000000 l    df *ABS*	00000000 fp-bit.c
00000000 l    df *ABS*	00000000 libgcc2.c
00000000 l    df *ABS*	00000000 fp-bit.c
00000000 l    df *ABS*	00000000 fp-bit.c
00000000 l    df *ABS*	00000000 fp-bit.c
00000000 l    df *ABS*	00000000 fp-bit.c
00000000 l    df *ABS*	00000000 fp-bit.c
00000000 l    df *ABS*	00000000 libgcc2.c
00000000 l    df *ABS*	00000000 libgcc2.c
00000000 l    df *ABS*	00000000 fp-bit.c
00000000 l    df *ABS*	00000000 printf.c
00000000 l    df *ABS*	00000000 puts.c
00000000 l    df *ABS*	00000000 sprintf.c
00000000 l    df *ABS*	00000000 strlen.c
00000000 l    df *ABS*	00000000 vfprintf.c
02003178 l     F .text	00000034 __sprint_r
0201e096 l     O .rodata	00000010 blanks.3546
0201e0a6 l     O .rodata	00000010 zeroes.3547
00000000 l    df *ABS*	00000000 wsetup.c
00000000 l    df *ABS*	00000000 dtoa.c
0200513c l     F .text	00000208 quorem
00000000 l    df *ABS*	00000000 fflush.c
00000000 l    df *ABS*	00000000 findfp.c
02006b78 l     F .text	00000008 __fp_lock
02006b80 l     F .text	00000008 __fp_unlock
00000000 l    df *ABS*	00000000 mallocr.c
00000000 l    df *ABS*	00000000 fvwrite.c
00000000 l    df *ABS*	00000000 fwalk.c
00000000 l    df *ABS*	00000000 impure.c
0201ea40 l     O .rwdata	00000400 impure_data
00000000 l    df *ABS*	00000000 locale.c
0201e0dc l     O .rodata	00000030 lconv
00000000 l    df *ABS*	00000000 makebuf.c
00000000 l    df *ABS*	00000000 mallocr.c
00000000 l    df *ABS*	00000000 memchr.c
00000000 l    df *ABS*	00000000 memcpy.c
00000000 l    df *ABS*	00000000 memmove.c
00000000 l    df *ABS*	00000000 memset.c
00000000 l    df *ABS*	00000000 mprec.c
0201e224 l     O .rodata	0000000c p05.2466
00000000 l    df *ABS*	00000000 mallocr.c
00000000 l    df *ABS*	00000000 s_isinfd.c
00000000 l    df *ABS*	00000000 s_isnand.c
00000000 l    df *ABS*	00000000 sbrkr.c
00000000 l    df *ABS*	00000000 stdio.c
00000000 l    df *ABS*	00000000 strcmp.c
00000000 l    df *ABS*	00000000 writer.c
00000000 l    df *ABS*	00000000 mallocr.c
00000000 l    df *ABS*	00000000 closer.c
00000000 l    df *ABS*	00000000 fclose.c
00000000 l    df *ABS*	00000000 fstatr.c
00000000 l    df *ABS*	00000000 int_errno.c
00000000 l    df *ABS*	00000000 isattyr.c
00000000 l    df *ABS*	00000000 lseekr.c
00000000 l    df *ABS*	00000000 readr.c
00000000 l    df *ABS*	00000000 libgcc2.c
00000000 l    df *ABS*	00000000 libgcc2.c
00000000 l    df *ABS*	00000000 fp-bit.c
00000000 l    df *ABS*	00000000 fp-bit.c
00000000 l    df *ABS*	00000000 fp-bit.c
00000000 l    df *ABS*	00000000 fp-bit.c
00000000 l    df *ABS*	00000000 fp-bit.c
00000000 l    df *ABS*	00000000 fp-bit.c
00000000 l    df *ABS*	00000000 fp-bit.c
00000000 l    df *ABS*	00000000 fp-bit.c
00000000 l    df *ABS*	00000000 lib2-divmod.c
0200b4a0 l     F .text	00000074 udivmodsi4
00000000 l    df *ABS*	00000000 libgcc2.c
00000000 l    df *ABS*	00000000 libgcc2.c
00000000 l    df *ABS*	00000000 alt_close.c
0200b67c l     F .text	00000050 alt_get_errno
00000000 l    df *ABS*	00000000 alt_dev.c
0200b794 l     F .text	0000002c alt_dev_null_write
00000000 l    df *ABS*	00000000 alt_errno.c
00000000 l    df *ABS*	00000000 alt_fstat.c
0200b7c0 l     F .text	00000050 alt_get_errno
00000000 l    df *ABS*	00000000 alt_iic.c
00000000 l    df *ABS*	00000000 alt_iic_isr_register.c
00000000 l    df *ABS*	00000000 alt_irq_vars.c
00000000 l    df *ABS*	00000000 alt_isatty.c
0200bb84 l     F .text	00000050 alt_get_errno
00000000 l    df *ABS*	00000000 alt_load.c
0200bc74 l     F .text	0000006c alt_load_section
00000000 l    df *ABS*	00000000 alt_lseek.c
0200bd60 l     F .text	00000050 alt_get_errno
00000000 l    df *ABS*	00000000 alt_main.c
00000000 l    df *ABS*	00000000 alt_malloc_lock.c
00000000 l    df *ABS*	00000000 alt_read.c
0200bf38 l     F .text	00000050 alt_get_errno
00000000 l    df *ABS*	00000000 alt_release_fd.c
00000000 l    df *ABS*	00000000 alt_sbrk.c
0202048c l     O .rwdata	00000004 heap_end
00000000 l    df *ABS*	00000000 alt_usleep.c
00000000 l    df *ABS*	00000000 alt_write.c
0200c1b8 l     F .text	00000050 alt_get_errno
00000000 l    df *ABS*	00000000 alt_sys_init.c
0200c2f4 l     F .text	00000038 alt_dev_reg
0201f3fc l     O .rwdata	00001060 jtag_uart
00000000 l    df *ABS*	00000000 altera_avalon_jtag_uart_fd.c
00000000 l    df *ABS*	00000000 altera_avalon_jtag_uart_init.c
0200c5dc l     F .text	00000204 altera_avalon_jtag_uart_irq
0200c7e0 l     F .text	000000a4 altera_avalon_jtag_uart_timeout
00000000 l    df *ABS*	00000000 altera_avalon_jtag_uart_ioctl.c
00000000 l    df *ABS*	00000000 altera_avalon_jtag_uart_read.c
00000000 l    df *ABS*	00000000 altera_avalon_jtag_uart_write.c
00000000 l    df *ABS*	00000000 alt_alarm_start.c
00000000 l    df *ABS*	00000000 alt_busy_sleep.c
00000000 l    df *ABS*	00000000 alt_dcache_flush_all.c
00000000 l    df *ABS*	00000000 alt_dev_llist_insert.c
0200d0f0 l     F .text	00000050 alt_get_errno
00000000 l    df *ABS*	00000000 alt_do_ctors.c
00000000 l    df *ABS*	00000000 alt_do_dtors.c
00000000 l    df *ABS*	00000000 alt_icache_flush_all.c
00000000 l    df *ABS*	00000000 alt_io_redirect.c
0200d2c8 l     F .text	000000c0 alt_open_fd
00000000 l    df *ABS*	00000000 alt_open.c
0200d400 l     F .text	00000050 alt_get_errno
0200d450 l     F .text	000000cc alt_file_locked
00000000 l    df *ABS*	00000000 alt_tick.c
00000000 l    df *ABS*	00000000 altera_nios2_qsys_irq.c
00000000 l    df *ABS*	00000000 alt_find_dev.c
00000000 l    df *ABS*	00000000 alt_find_file.c
00000000 l    df *ABS*	00000000 alt_get_fd.c
00000000 l    df *ABS*	00000000 alt_icache_flush.c
00000000 l    df *ABS*	00000000 atexit.c
00000000 l    df *ABS*	00000000 exit.c
00000000 l    df *ABS*	00000000 memcmp.c
00000000 l    df *ABS*	00000000 __atexit.c
00000000 l    df *ABS*	00000000 __call_atexit.c
00000000 l    df *ABS*	00000000 alt_exit.c
00000000 l    df *ABS*	00000000 
020225f0 g     O .bss	00000004 fR
020094d0 g     F .text	00000074 _mprec_log10
020095c0 g     F .text	00000084 __any_on
0200a230 g     F .text	00000064 _isatty_r
0201e10c g     O .rodata	00000028 __mprec_tinytens
0200be80 g     F .text	00000078 alt_main
02002db8 g     F .text	00000044 __ashldi3
02002f90 g     F .text	00000084 _puts_r
0206d6a0 g     O .bss	00000100 alt_irq
0200a294 g     F .text	0000006c _lseek_r
02020498 g       *ABS*	00000000 __flash_rwdata_start
0200b074 g     F .text	0000005c __eqdf2
0206d930 g       *ABS*	00000000 __alt_heap_start
02002f54 g     F .text	0000003c printf
02009de4 g     F .text	0000005c __sseek
02006c08 g     F .text	0000010c __sinit
020078a0 g     F .text	0000009c _setlocale_r
02006b94 g     F .text	00000064 __sfmoreglue
0200bf18 g     F .text	00000020 __malloc_unlock
02008498 g     F .text	00000128 memmove
020225d4 g     O .bss	00000004 m_pgrayimage2
02006bf8 g     F .text	00000010 _cleanup
0200869c g     F .text	000000a8 _Balloc
0200b12c g     F .text	00000064 __gtdf2
00000000  w      *UND*	00000000 __errno
02000d04 g     F .text	00000094 noAck
02000000 g     F .entry	0000001c __reset
02000ed8 g     F .text	000000c4 SCCBreadByte
020225f4 g     O .bss	00000004 edge_capture
02000020 g       *ABS*	00000000 __flash_exceptions_start
0200a1c8 g     F .text	00000068 _fstat_r
020225d8 g     O .bss	00000004 m_ptemplate
0202265c g     O .bss	00000004 errno
02002790 g     F .text	00000038 __make_dp
02000378 g     F .text	0000004c LCD_WR_REG
02002950 g     F .text	0000002c __make_fp
02022668 g     O .bss	00000004 alt_argv
020225f8 g     O .bss	00000001 Rs
0202845c g       *ABS*	00000000 _gp
0200c188 g     F .text	00000030 usleep
0201f27c g     O .rwdata	00000180 alt_fd_list
02000204 g     F .text	00000050 delayms
0200d82c g     F .text	00000090 alt_find_dev
020083a0 g     F .text	000000f8 memcpy
020010d8 g     F .text	000000c4 rdOV7660Reg
020225fc g     O .bss	00000004 Rf_in
02006b88 g     F .text	0000000c _cleanup_r
0200b1ec g     F .text	000000d4 __floatsidf
0200d388 g     F .text	00000078 alt_io_redirect
0200b190 g     F .text	0000005c __ltdf2
02001524 g     F .text	00000068 init_button_pio
0200dee4 g       *ABS*	00000000 __DTOR_END__
02003014 g     F .text	00000014 puts
0200942c g     F .text	000000a4 __ratio
0200c9e0 g     F .text	00000218 altera_avalon_jtag_uart_read
00000000  w      *UND*	00000000 malloc
02002f28 g     F .text	0000002c _printf_r
0200b5c0 g     F .text	00000008 __udivsi3
0200bbd4 g     F .text	000000a0 isatty
0201e15c g     O .rodata	000000c8 __mprec_tens
020226a0 g     O .bss	00025800 Y2
0200793c g     F .text	0000000c __locale_charset
0201e35c g     O .rwdata	000005f0 english
0200da84 g     F .text	0000008c alt_icache_flush
02022658 g     O .bss	00000004 __malloc_top_pad
02020464 g     O .rwdata	00000004 __mb_cur_max
02007948 g     F .text	0000000c _localeconv_r
02008a9c g     F .text	0000003c __i2b
0200725c g     F .text	000004e4 __sfvwrite_r
02009ca4 g     F .text	00000064 _sbrk_r
0200a300 g     F .text	0000006c _read_r
0201ee40 g     O .rwdata	0000000c __lc_ctype
02020480 g     O .rwdata	00000004 alt_max_fd
02002ba0 g     F .text	00000104 __unpack_d
0200a078 g     F .text	0000013c _fclose_r
02006b48 g     F .text	00000030 fflush
02022654 g     O .bss	00000004 __malloc_max_sbrked_mem
02000310 g     F .text	00000068 LCD_Write_DATA
02022600 g     O .bss	00000004 Y
02001fa0 g     F .text	00000044 __extendsfdf2
02002338 g     F .text	00000054 __adddf3
020091a0 g     F .text	00000148 __b2d
0200119c g     F .text	000001b0 OV7660_config_window
0200a934 g     F .text	0000058c __umoddi3
0200bdb0 g     F .text	000000d0 lseek
02022604 g     O .bss	00000006 Ys
0202045c g     O .rwdata	00000004 _global_impure_ptr
02009644 g     F .text	000005fc _realloc_r
0206d930 g       *ABS*	00000000 __bss_end
0200ba94 g     F .text	000000f0 alt_iic_isr_register
0200d708 g     F .text	00000104 alt_tick
0200a36c g     F .text	000005c8 __udivdi3
0201e134 g     O .rodata	00000028 __mprec_bigtens
02008880 g     F .text	00000104 __s2b
0200b384 g     F .text	0000011c __floatunsidf
02008f40 g     F .text	00000058 __mcmp
02006e20 g     F .text	00000018 __fp_lock_all
0200ba48 g     F .text	0000004c alt_ic_irq_enabled
0200d670 g     F .text	00000098 alt_alarm_stop
02022660 g     O .bss	00000004 alt_irq_active
020000ec g     F .exceptions	000000cc alt_irq_handler
0201f254 g     O .rwdata	00000028 alt_dev_null
02002888 g     F .text	000000c8 __unpack_f
020225dc g     O .bss	00000004 m_pdiffimage
0200d0ac g     F .text	00000044 alt_dcache_flush_all
02008984 g     F .text	00000068 __hi0bits
0200b2c0 g     F .text	000000c4 __fixdfsi
02020498 g       *ABS*	00000000 __ram_rwdata_end
04001000 g       *ABS*	00000000 __alt_mem_onchip_memory
02020478 g     O .rwdata	00000008 alt_dev_list
0200c208 g     F .text	000000ec write
0201e35c g       *ABS*	00000000 __ram_rodata_end
0200b810 g     F .text	000000ac fstat
02002d74 g     F .text	00000044 __lshrdi3
0200dee4 g     O .rodata	00008000 gImage_scr01
02002734 g     F .text	0000005c __ledf2
0202260c g     O .bss	00000004 fYp
02008cb8 g     F .text	0000012c __pow5mult
0202264c g     O .bss	00000004 __nlocale_changed
0200b5c8 g     F .text	00000008 __umodsi3
0206d930 g       *ABS*	00000000 end
02002dfc g     F .text	0000012c __pack_f
0200c51c g     F .text	000000c0 altera_avalon_jtag_uart_init
0200059c g     F .text	000000e8 LCD_write_english
0200dee4 g       *ABS*	00000000 __CTOR_LIST__
04000000 g       *ABS*	00000000 __alt_stack_pointer
0200b5d0 g     F .text	000000ac __clzsi2
0200cbf8 g     F .text	00000220 altera_avalon_jtag_uart_write
02006e10 g     F .text	00000004 __sfp_lock_acquire
020082a8 g     F .text	000000f8 memchr
020031ac g     F .text	00001df8 ___vfprintf_internal_r
02003028 g     F .text	00000058 _sprintf_r
02006f8c g     F .text	000002d0 _free_r
02000854 g     F .text	00000054 LCD_reset
02000800 g     F .text	00000054 LCD_SetCursor
0200102c g     F .text	000000ac wrOV7660Reg
0200dd08 g     F .text	000001a0 __call_exitprocs
02022648 g     O .bss	00000004 __mlocale_changed
02020468 g     O .rwdata	00000004 __malloc_sbrk_base
020001b8 g     F .text	0000004c _start
02022670 g     O .bss	00000004 _alt_tick_rate
02022610 g     O .bss	00000006 Xps
02008de4 g     F .text	0000015c __lshift
02022674 g     O .bss	00000004 _alt_nticks
0200bf88 g     F .text	000000f0 read
0200c360 g     F .text	00000058 alt_sys_init
0200dbd8 g     F .text	00000130 __register_exitproc
02008ad8 g     F .text	000001e0 __multiply
0200c884 g     F .text	00000068 altera_avalon_jtag_uart_close
0201e35c g       *ABS*	00000000 __ram_rwdata_start
0200dee4 g       *ABS*	00000000 __ram_rodata_start
02022678 g     O .bss	00000028 __malloc_current_mallinfo
020225e0 g     O .bss	00000004 m_pgrayimage1
020092e8 g     F .text	00000144 __d2b
0200c3b8 g     F .text	00000060 altera_avalon_jtag_uart_read_fd
0200d9d0 g     F .text	000000b4 alt_get_fd
0200cf58 g     F .text	00000154 alt_busy_sleep
02002ca4 g     F .text	000000d0 __fpcmp_parts_d
0200a014 g     F .text	00000064 _close_r
02001f88 g     F .text	00000018 __isnanf
0200db5c g     F .text	0000007c memcmp
0200c478 g     F .text	00000050 altera_avalon_jtag_uart_close_fd
0206d930 g       *ABS*	00000000 __alt_stack_base
0200c4c8 g     F .text	00000054 altera_avalon_jtag_uart_ioctl_fd
02004fc8 g     F .text	00000174 __swsetup_r
0200aec0 g     F .text	000001b4 __divdf3
02006d14 g     F .text	000000fc __sfp
02009544 g     F .text	0000007c __copybits
0201ee4c g     O .rwdata	00000408 __malloc_av_
02006e1c g     F .text	00000004 __sinit_lock_release
020023ec g     F .text	000002e4 __muldf3
02009d08 g     F .text	00000054 __sread
02000f9c g     F .text	00000040 delay_us
0200d8bc g     F .text	00000114 alt_find_file
0200d140 g     F .text	000000a0 alt_dev_llist_insert
0200bef8 g     F .text	00000020 __malloc_lock
0200c0d8 g     F .text	000000b0 sbrk
02006960 g     F .text	000001e8 _fflush_r
02009f58 g     F .text	000000bc _calloc_r
020225e4 g     O .bss	00000004 m_pbackground
020008a8 g     F .text	0000008c Pant
02022618 g     O .bss	00000004 flag_p
020225d4 g       *ABS*	00000000 __bss_start
02000934 g     F .text	000002c0 LCD_Init
020085c0 g     F .text	000000dc memset
02001808 g     F .text	00000780 main
02000fdc g     F .text	00000050 delay_ms
0202266c g     O .bss	00000004 alt_envp
02022650 g     O .bss	00000004 __malloc_max_total_mem
0200c418 g     F .text	00000060 altera_avalon_jtag_uart_write_fd
02000744 g     F .text	000000bc Lcd_SetBox
02009e40 g     F .text	00000008 __sclose
04000000 g       *ABS*	00000000 __alt_heap_limit
0200a1b4 g     F .text	00000014 fclose
020027c8 g     F .text	00000060 __truncdfsf2
02000d98 g     F .text	00000140 SCCBwriteByte
0206d7a0 g     O .bss	00000190 _atexit0
02005344 g     F .text	0000161c _dtoa_r
02007b24 g     F .text	00000784 _malloc_r
02020484 g     O .rwdata	00000004 alt_errno
02007740 g     F .text	000000a8 _fwalk
0202261c g     O .bss	00000004 fXp
0201e94c g     O .rwdata	000000f2 change_reg
0200b514 g     F .text	00000050 __divsi3
0201e03c g     O .rodata	00000014 __thenan_df
02006e50 g     F .text	0000013c _malloc_trim_r
0200dee4 g       *ABS*	00000000 __CTOR_END__
02009e48 g     F .text	000000a4 strcmp
02022620 g     O .bss	00000006 Yps
0200dee4 g       *ABS*	00000000 __flash_rodata_start
0200dee4 g       *ABS*	00000000 __DTOR_LIST__
0200b0d0 g     F .text	0000005c __nedf2
0200c32c g     F .text	00000034 alt_irq_init
0200158c g     F .text	0000027c odval_interrupts
0200c078 g     F .text	00000060 alt_release_fd
02003080 g     F .text	0000006c sprintf
0201e230 g     O .rodata	00000100 __clz_tab
02022644 g     O .bss	00000004 _PathLocale
02022628 g     O .bss	00000004 R
0200db10 g     F .text	00000014 atexit
02009eec g     F .text	0000006c _write_r
02007954 g     F .text	0000001c setlocale
02020460 g     O .rwdata	00000004 _impure_ptr
02022664 g     O .bss	00000004 alt_argc
0200d23c g     F .text	0000005c _do_dtors
0202262c g     O .bss	00000004 fY
02000020 g       .exceptions	00000000 alt_irq_entry
02009140 g     F .text	00000060 __ulp
02009c40 g     F .text	00000038 __isinfd
02006e38 g     F .text	00000018 __fp_unlock_all
02020470 g     O .rwdata	00000008 alt_fs_list
02022630 g     O .bss	00000004 fX
02000c88 g     F .text	0000007c stopSCCB
02000020 g       *ABS*	00000000 __ram_exceptions_start
02007970 g     F .text	0000000c localeconv
0200b8bc g     F .text	00000050 alt_ic_isr_register
02020498 g       *ABS*	00000000 _edata
0206d930 g       *ABS*	00000000 _end
02022634 g     O .bss	00000006 Xs
020001b8 g       *ABS*	00000000 __ram_exceptions_end
0200c8ec g     F .text	000000f4 altera_avalon_jtag_uart_ioctl
02000bf4 g     F .text	00000094 startSCCB
0200b9a8 g     F .text	000000a0 alt_ic_irq_disable
02009d5c g     F .text	00000088 __swrite
0202046c g     O .rwdata	00000004 __malloc_trim_threshold
0200d80c g     F .text	00000020 altera_nios2_qsys_irq_init
0200db24 g     F .text	00000038 exit
02047ea0 g     O .bss	00025800 Y1
020004d0 g     F .text	000000cc Address_set
020077e8 g     F .text	000000b8 _fwalk_reent
02008f98 g     F .text	000001a8 __mdiff
0200b564 g     F .text	0000005c __modsi3
020225e8 g     O .bss	00000002 DeviceCode
04000000 g       *ABS*	00000000 __alt_data_end
02000020 g     F .exceptions	00000000 alt_exception
02006e14 g     F .text	00000004 __sfp_lock_release
02000000 g       *ABS*	00000000 __alt_mem_sdram
0200dea8 g     F .text	0000003c _exit
02009c78 g     F .text	0000002c __isnand
0200ce18 g     F .text	00000140 alt_alarm_start
02002828 g     F .text	00000060 __muldi3
0200797c g     F .text	000001a8 __smakebuf_r
020030ec g     F .text	0000008c strlen
0200d51c g     F .text	00000154 open
020026d0 g     F .text	00000064 __gedf2
02000254 g     F .text	00000054 LCD_Writ_Bus
02015ee4 g     O .rodata	00008000 gImage_83gr
020225ec g     O .bss	00000004 cadr_count
0200d298 g     F .text	00000030 alt_icache_flush_all
02020488 g     O .rwdata	00000004 alt_priority_mask
0200b90c g     F .text	0000009c alt_ic_irq_enable
02004fa4 g     F .text	00000024 __vfprintf_internal
0200238c g     F .text	00000060 __subdf3
020089ec g     F .text	000000b0 __lo0bits
0200134c g     F .text	000001d8 OV7660_init
02020490 g     O .rwdata	00000008 alt_alarm_list
0200d1e0 g     F .text	0000005c _do_ctors
0200b6cc g     F .text	000000c8 close
02000684 g     F .text	000000c0 LCD_write_english_string
020003c4 g     F .text	0000010c LCD_ReadReg
0200bce0 g     F .text	00000080 alt_load
0200297c g     F .text	00000224 __pack_d
020002a8 g     F .text	00000068 LCD_Write_COM
0202263c g     O .bss	00000004 X
00000000  w      *UND*	00000000 free
02006e18 g     F .text	00000004 __sinit_lock_acquire
0200876c g     F .text	00000114 __multadd
02022640 g     O .bss	00000001 value
02008744 g     F .text	00000028 _Bfree



Disassembly of section .entry:

02000000 <__reset>:
 2000000:	00840014 	movui	r2,4096
 2000004:	1001483a 	initi	r2
 2000008:	10bff804 	addi	r2,r2,-32
 200000c:	00bffd16 	blt	zero,r2,2000004 <__alt_mem_onchip_memory+0xfdfff004>
 2000010:	00408034 	movhi	at,512
 2000014:	08406e14 	ori	at,at,440
 2000018:	0800683a 	jmp	at
 200001c:	00000000 	call	0 <__reset-0x2000000>

Disassembly of section .exceptions:

02000020 <alt_exception>:
 2000020:	deffed04 	addi	sp,sp,-76
 2000024:	dfc00015 	stw	ra,0(sp)
 2000028:	d8400215 	stw	at,8(sp)
 200002c:	d8800315 	stw	r2,12(sp)
 2000030:	d8c00415 	stw	r3,16(sp)
 2000034:	d9000515 	stw	r4,20(sp)
 2000038:	d9400615 	stw	r5,24(sp)
 200003c:	d9800715 	stw	r6,28(sp)
 2000040:	d9c00815 	stw	r7,32(sp)
 2000044:	000b307a 	rdctl	r5,estatus
 2000048:	da000915 	stw	r8,36(sp)
 200004c:	da400a15 	stw	r9,40(sp)
 2000050:	da800b15 	stw	r10,44(sp)
 2000054:	dac00c15 	stw	r11,48(sp)
 2000058:	db000d15 	stw	r12,52(sp)
 200005c:	db400e15 	stw	r13,56(sp)
 2000060:	db800f15 	stw	r14,60(sp)
 2000064:	dbc01015 	stw	r15,64(sp)
 2000068:	d9401115 	stw	r5,68(sp)
 200006c:	ebffff04 	addi	r15,ea,-4
 2000070:	dbc01215 	stw	r15,72(sp)
 2000074:	0009313a 	rdctl	r4,ipending
 2000078:	2880004c 	andi	r2,r5,1
 200007c:	10000326 	beq	r2,zero,200008c <alt_exception+0x6c>
 2000080:	20000226 	beq	r4,zero,200008c <alt_exception+0x6c>
 2000084:	20000ec0 	call	20000ec <alt_irq_handler>
 2000088:	00000306 	br	2000098 <alt_exception_unknown+0x4>
 200008c:	df401215 	stw	ea,72(sp)
 2000090:	e8bfff17 	ldw	r2,-4(ea)

02000094 <alt_exception_unknown>:
 2000094:	003da03a 	break	0
 2000098:	d9401117 	ldw	r5,68(sp)
 200009c:	df401217 	ldw	ea,72(sp)
 20000a0:	dfc00017 	ldw	ra,0(sp)
 20000a4:	2801707a 	wrctl	estatus,r5
 20000a8:	d8400217 	ldw	at,8(sp)
 20000ac:	d8800317 	ldw	r2,12(sp)
 20000b0:	d8c00417 	ldw	r3,16(sp)
 20000b4:	d9000517 	ldw	r4,20(sp)
 20000b8:	d9400617 	ldw	r5,24(sp)
 20000bc:	d9800717 	ldw	r6,28(sp)
 20000c0:	d9c00817 	ldw	r7,32(sp)
 20000c4:	da000917 	ldw	r8,36(sp)
 20000c8:	da400a17 	ldw	r9,40(sp)
 20000cc:	da800b17 	ldw	r10,44(sp)
 20000d0:	dac00c17 	ldw	r11,48(sp)
 20000d4:	db000d17 	ldw	r12,52(sp)
 20000d8:	db400e17 	ldw	r13,56(sp)
 20000dc:	db800f17 	ldw	r14,60(sp)
 20000e0:	dbc01017 	ldw	r15,64(sp)
 20000e4:	dec01304 	addi	sp,sp,76
 20000e8:	ef80083a 	eret

020000ec <alt_irq_handler>:
 20000ec:	defff904 	addi	sp,sp,-28
 20000f0:	dfc00615 	stw	ra,24(sp)
 20000f4:	df000515 	stw	fp,20(sp)
 20000f8:	df000504 	addi	fp,sp,20
 20000fc:	0001883a 	nop
 2000100:	0005313a 	rdctl	r2,ipending
 2000104:	e0bffe15 	stw	r2,-8(fp)
 2000108:	e0bffe17 	ldw	r2,-8(fp)
 200010c:	e0bffb15 	stw	r2,-20(fp)
 2000110:	e03ffd15 	stw	zero,-12(fp)
 2000114:	00800044 	movi	r2,1
 2000118:	e0bffc15 	stw	r2,-16(fp)
 200011c:	e0fffb17 	ldw	r3,-20(fp)
 2000120:	e0bffc17 	ldw	r2,-16(fp)
 2000124:	1884703a 	and	r2,r3,r2
 2000128:	10001726 	beq	r2,zero,2000188 <alt_irq_handler+0x9c>
 200012c:	00c081f4 	movhi	r3,519
 2000130:	18f5a804 	addi	r3,r3,-10592
 2000134:	e0bffd17 	ldw	r2,-12(fp)
 2000138:	100490fa 	slli	r2,r2,3
 200013c:	1885883a 	add	r2,r3,r2
 2000140:	10c00017 	ldw	r3,0(r2)
 2000144:	010081f4 	movhi	r4,519
 2000148:	2135a804 	addi	r4,r4,-10592
 200014c:	e0bffd17 	ldw	r2,-12(fp)
 2000150:	100490fa 	slli	r2,r2,3
 2000154:	2085883a 	add	r2,r4,r2
 2000158:	10800104 	addi	r2,r2,4
 200015c:	10800017 	ldw	r2,0(r2)
 2000160:	1009883a 	mov	r4,r2
 2000164:	183ee83a 	callr	r3
 2000168:	0001883a 	nop
 200016c:	0005313a 	rdctl	r2,ipending
 2000170:	e0bfff15 	stw	r2,-4(fp)
 2000174:	e0bfff17 	ldw	r2,-4(fp)
 2000178:	e0bffb15 	stw	r2,-20(fp)
 200017c:	e0bffb17 	ldw	r2,-20(fp)
 2000180:	103fe31e 	bne	r2,zero,2000110 <__alt_mem_onchip_memory+0xfdfff110>
 2000184:	00000706 	br	20001a4 <alt_irq_handler+0xb8>
 2000188:	e0bffc17 	ldw	r2,-16(fp)
 200018c:	1085883a 	add	r2,r2,r2
 2000190:	e0bffc15 	stw	r2,-16(fp)
 2000194:	e0bffd17 	ldw	r2,-12(fp)
 2000198:	10800044 	addi	r2,r2,1
 200019c:	e0bffd15 	stw	r2,-12(fp)
 20001a0:	003fde06 	br	200011c <__alt_mem_onchip_memory+0xfdfff11c>
 20001a4:	e037883a 	mov	sp,fp
 20001a8:	dfc00117 	ldw	ra,4(sp)
 20001ac:	df000017 	ldw	fp,0(sp)
 20001b0:	dec00204 	addi	sp,sp,8
 20001b4:	f800283a 	ret

Disassembly of section .text:

020001b8 <_start>:
 20001b8:	00820014 	movui	r2,2048
 20001bc:	10000033 	initd	0(r2)
 20001c0:	10bff804 	addi	r2,r2,-32
 20001c4:	00bffd16 	blt	zero,r2,20001bc <__alt_mem_onchip_memory+0xfdfff1bc>
 20001c8:	06c10034 	movhi	sp,1024
 20001cc:	dec00014 	ori	sp,sp,0
 20001d0:	068080b4 	movhi	gp,514
 20001d4:	d6a11714 	ori	gp,gp,33884
 20001d8:	008080b4 	movhi	r2,514
 20001dc:	10897514 	ori	r2,r2,9684
 20001e0:	00c081b4 	movhi	r3,518
 20001e4:	18f64c14 	ori	r3,r3,55600
 20001e8:	10c00326 	beq	r2,r3,20001f8 <_start+0x40>
 20001ec:	10000015 	stw	zero,0(r2)
 20001f0:	10800104 	addi	r2,r2,4
 20001f4:	10fffd36 	bltu	r2,r3,20001ec <__alt_mem_onchip_memory+0xfdfff1ec>
 20001f8:	200bce00 	call	200bce0 <alt_load>
 20001fc:	200be800 	call	200be80 <alt_main>

02000200 <alt_after_alt_main>:
 2000200:	003fff06 	br	2000200 <__alt_mem_onchip_memory+0xfdfff200>

02000204 <delayms>:
 2000204:	defffc04 	addi	sp,sp,-16
 2000208:	dfc00315 	stw	ra,12(sp)
 200020c:	df000215 	stw	fp,8(sp)
 2000210:	df000204 	addi	fp,sp,8
 2000214:	e13fff15 	stw	r4,-4(fp)
 2000218:	e03ffe15 	stw	zero,-8(fp)
 200021c:	00000506 	br	2000234 <delayms+0x30>
 2000220:	01000144 	movi	r4,5
 2000224:	200c1880 	call	200c188 <usleep>
 2000228:	e0bffe17 	ldw	r2,-8(fp)
 200022c:	10800044 	addi	r2,r2,1
 2000230:	e0bffe15 	stw	r2,-8(fp)
 2000234:	e0fffe17 	ldw	r3,-8(fp)
 2000238:	e0bfff17 	ldw	r2,-4(fp)
 200023c:	18bff816 	blt	r3,r2,2000220 <__alt_mem_onchip_memory+0xfdfff220>
 2000240:	e037883a 	mov	sp,fp
 2000244:	dfc00117 	ldw	ra,4(sp)
 2000248:	df000017 	ldw	fp,0(sp)
 200024c:	dec00204 	addi	sp,sp,8
 2000250:	f800283a 	ret

02000254 <LCD_Writ_Bus>:
 2000254:	defffe04 	addi	sp,sp,-8
 2000258:	df000115 	stw	fp,4(sp)
 200025c:	df000104 	addi	fp,sp,4
 2000260:	2005883a 	mov	r2,r4
 2000264:	e0bfff0d 	sth	r2,-4(fp)
 2000268:	e0ffff0b 	ldhu	r3,-4(fp)
 200026c:	00810034 	movhi	r2,1024
 2000270:	108c9004 	addi	r2,r2,12864
 2000274:	10c00035 	stwio	r3,0(r2)
 2000278:	0007883a 	mov	r3,zero
 200027c:	00810034 	movhi	r2,1024
 2000280:	108c8804 	addi	r2,r2,12832
 2000284:	10c00035 	stwio	r3,0(r2)
 2000288:	00c00044 	movi	r3,1
 200028c:	00810034 	movhi	r2,1024
 2000290:	108c8804 	addi	r2,r2,12832
 2000294:	10c00035 	stwio	r3,0(r2)
 2000298:	e037883a 	mov	sp,fp
 200029c:	df000017 	ldw	fp,0(sp)
 20002a0:	dec00104 	addi	sp,sp,4
 20002a4:	f800283a 	ret

020002a8 <LCD_Write_COM>:
 20002a8:	defffd04 	addi	sp,sp,-12
 20002ac:	dfc00215 	stw	ra,8(sp)
 20002b0:	df000115 	stw	fp,4(sp)
 20002b4:	df000104 	addi	fp,sp,4
 20002b8:	2005883a 	mov	r2,r4
 20002bc:	e0bfff0d 	sth	r2,-4(fp)
 20002c0:	0007883a 	mov	r3,zero
 20002c4:	00810034 	movhi	r2,1024
 20002c8:	108c8404 	addi	r2,r2,12816
 20002cc:	10c00035 	stwio	r3,0(r2)
 20002d0:	00c00044 	movi	r3,1
 20002d4:	00810034 	movhi	r2,1024
 20002d8:	108c6404 	addi	r2,r2,12688
 20002dc:	10c00035 	stwio	r3,0(r2)
 20002e0:	0007883a 	mov	r3,zero
 20002e4:	00810034 	movhi	r2,1024
 20002e8:	108c8c04 	addi	r2,r2,12848
 20002ec:	10c00035 	stwio	r3,0(r2)
 20002f0:	e0bfff0b 	ldhu	r2,-4(fp)
 20002f4:	1009883a 	mov	r4,r2
 20002f8:	20002540 	call	2000254 <LCD_Writ_Bus>
 20002fc:	e037883a 	mov	sp,fp
 2000300:	dfc00117 	ldw	ra,4(sp)
 2000304:	df000017 	ldw	fp,0(sp)
 2000308:	dec00204 	addi	sp,sp,8
 200030c:	f800283a 	ret

02000310 <LCD_Write_DATA>:
 2000310:	defffd04 	addi	sp,sp,-12
 2000314:	dfc00215 	stw	ra,8(sp)
 2000318:	df000115 	stw	fp,4(sp)
 200031c:	df000104 	addi	fp,sp,4
 2000320:	2005883a 	mov	r2,r4
 2000324:	e0bfff0d 	sth	r2,-4(fp)
 2000328:	0007883a 	mov	r3,zero
 200032c:	00810034 	movhi	r2,1024
 2000330:	108c8404 	addi	r2,r2,12816
 2000334:	10c00035 	stwio	r3,0(r2)
 2000338:	00c00044 	movi	r3,1
 200033c:	00810034 	movhi	r2,1024
 2000340:	108c6404 	addi	r2,r2,12688
 2000344:	10c00035 	stwio	r3,0(r2)
 2000348:	00c00044 	movi	r3,1
 200034c:	00810034 	movhi	r2,1024
 2000350:	108c8c04 	addi	r2,r2,12848
 2000354:	10c00035 	stwio	r3,0(r2)
 2000358:	e0bfff0b 	ldhu	r2,-4(fp)
 200035c:	1009883a 	mov	r4,r2
 2000360:	20002540 	call	2000254 <LCD_Writ_Bus>
 2000364:	e037883a 	mov	sp,fp
 2000368:	dfc00117 	ldw	ra,4(sp)
 200036c:	df000017 	ldw	fp,0(sp)
 2000370:	dec00204 	addi	sp,sp,8
 2000374:	f800283a 	ret

02000378 <LCD_WR_REG>:
 2000378:	defffc04 	addi	sp,sp,-16
 200037c:	dfc00315 	stw	ra,12(sp)
 2000380:	df000215 	stw	fp,8(sp)
 2000384:	df000204 	addi	fp,sp,8
 2000388:	e13ffe15 	stw	r4,-8(fp)
 200038c:	e17fff15 	stw	r5,-4(fp)
 2000390:	e0bffe17 	ldw	r2,-8(fp)
 2000394:	10bfffcc 	andi	r2,r2,65535
 2000398:	1009883a 	mov	r4,r2
 200039c:	20002a80 	call	20002a8 <LCD_Write_COM>
 20003a0:	e0bfff17 	ldw	r2,-4(fp)
 20003a4:	10bfffcc 	andi	r2,r2,65535
 20003a8:	1009883a 	mov	r4,r2
 20003ac:	20003100 	call	2000310 <LCD_Write_DATA>
 20003b0:	e037883a 	mov	sp,fp
 20003b4:	dfc00117 	ldw	ra,4(sp)
 20003b8:	df000017 	ldw	fp,0(sp)
 20003bc:	dec00204 	addi	sp,sp,8
 20003c0:	f800283a 	ret

020003c4 <LCD_ReadReg>:
 20003c4:	defffc04 	addi	sp,sp,-16
 20003c8:	dfc00315 	stw	ra,12(sp)
 20003cc:	df000215 	stw	fp,8(sp)
 20003d0:	df000204 	addi	fp,sp,8
 20003d4:	2005883a 	mov	r2,r4
 20003d8:	e0bfff0d 	sth	r2,-4(fp)
 20003dc:	0007883a 	mov	r3,zero
 20003e0:	00810034 	movhi	r2,1024
 20003e4:	108c8404 	addi	r2,r2,12816
 20003e8:	10c00035 	stwio	r3,0(r2)
 20003ec:	e0bfff0b 	ldhu	r2,-4(fp)
 20003f0:	1009883a 	mov	r4,r2
 20003f4:	20002a80 	call	20002a8 <LCD_Write_COM>
 20003f8:	0007883a 	mov	r3,zero
 20003fc:	00810034 	movhi	r2,1024
 2000400:	108c9104 	addi	r2,r2,12868
 2000404:	10c00035 	stwio	r3,0(r2)
 2000408:	0007883a 	mov	r3,zero
 200040c:	00810034 	movhi	r2,1024
 2000410:	108c8404 	addi	r2,r2,12816
 2000414:	10c00035 	stwio	r3,0(r2)
 2000418:	00c00044 	movi	r3,1
 200041c:	00810034 	movhi	r2,1024
 2000420:	108c8804 	addi	r2,r2,12832
 2000424:	10c00035 	stwio	r3,0(r2)
 2000428:	00c00044 	movi	r3,1
 200042c:	00810034 	movhi	r2,1024
 2000430:	108c8c04 	addi	r2,r2,12848
 2000434:	10c00035 	stwio	r3,0(r2)
 2000438:	0007883a 	mov	r3,zero
 200043c:	00810034 	movhi	r2,1024
 2000440:	108c6404 	addi	r2,r2,12688
 2000444:	10c00035 	stwio	r3,0(r2)
 2000448:	01000144 	movi	r4,5
 200044c:	20002040 	call	2000204 <delayms>
 2000450:	0007883a 	mov	r3,zero
 2000454:	00810034 	movhi	r2,1024
 2000458:	108c9404 	addi	r2,r2,12880
 200045c:	10c00035 	stwio	r3,0(r2)
 2000460:	00810034 	movhi	r2,1024
 2000464:	108c9004 	addi	r2,r2,12864
 2000468:	10800037 	ldwio	r2,0(r2)
 200046c:	e0bffe0d 	sth	r2,-8(fp)
 2000470:	00c00044 	movi	r3,1
 2000474:	00810034 	movhi	r2,1024
 2000478:	108c9404 	addi	r2,r2,12880
 200047c:	10c00035 	stwio	r3,0(r2)
 2000480:	00c00044 	movi	r3,1
 2000484:	00810034 	movhi	r2,1024
 2000488:	108c6404 	addi	r2,r2,12688
 200048c:	10c00035 	stwio	r3,0(r2)
 2000490:	01000144 	movi	r4,5
 2000494:	20002040 	call	2000204 <delayms>
 2000498:	00c00044 	movi	r3,1
 200049c:	00810034 	movhi	r2,1024
 20004a0:	108c8404 	addi	r2,r2,12816
 20004a4:	10c00035 	stwio	r3,0(r2)
 20004a8:	00ffffd4 	movui	r3,65535
 20004ac:	00810034 	movhi	r2,1024
 20004b0:	108c9104 	addi	r2,r2,12868
 20004b4:	10c00035 	stwio	r3,0(r2)
 20004b8:	e0bffe0b 	ldhu	r2,-8(fp)
 20004bc:	e037883a 	mov	sp,fp
 20004c0:	dfc00117 	ldw	ra,4(sp)
 20004c4:	df000017 	ldw	fp,0(sp)
 20004c8:	dec00204 	addi	sp,sp,8
 20004cc:	f800283a 	ret

020004d0 <Address_set>:
 20004d0:	defffa04 	addi	sp,sp,-24
 20004d4:	dfc00515 	stw	ra,20(sp)
 20004d8:	df000415 	stw	fp,16(sp)
 20004dc:	df000404 	addi	fp,sp,16
 20004e0:	e13ffc15 	stw	r4,-16(fp)
 20004e4:	e17ffd15 	stw	r5,-12(fp)
 20004e8:	e1bffe15 	stw	r6,-8(fp)
 20004ec:	e1ffff15 	stw	r7,-4(fp)
 20004f0:	01000804 	movi	r4,32
 20004f4:	20002a80 	call	20002a8 <LCD_Write_COM>
 20004f8:	e0bffc17 	ldw	r2,-16(fp)
 20004fc:	10bfffcc 	andi	r2,r2,65535
 2000500:	1009883a 	mov	r4,r2
 2000504:	20003100 	call	2000310 <LCD_Write_DATA>
 2000508:	01000844 	movi	r4,33
 200050c:	20002a80 	call	20002a8 <LCD_Write_COM>
 2000510:	e0bffd17 	ldw	r2,-12(fp)
 2000514:	10bfffcc 	andi	r2,r2,65535
 2000518:	1009883a 	mov	r4,r2
 200051c:	20003100 	call	2000310 <LCD_Write_DATA>
 2000520:	01001404 	movi	r4,80
 2000524:	20002a80 	call	20002a8 <LCD_Write_COM>
 2000528:	e0bffc17 	ldw	r2,-16(fp)
 200052c:	10bfffcc 	andi	r2,r2,65535
 2000530:	1009883a 	mov	r4,r2
 2000534:	20003100 	call	2000310 <LCD_Write_DATA>
 2000538:	01001484 	movi	r4,82
 200053c:	20002a80 	call	20002a8 <LCD_Write_COM>
 2000540:	e0bffd17 	ldw	r2,-12(fp)
 2000544:	10bfffcc 	andi	r2,r2,65535
 2000548:	1009883a 	mov	r4,r2
 200054c:	20003100 	call	2000310 <LCD_Write_DATA>
 2000550:	01001444 	movi	r4,81
 2000554:	20002a80 	call	20002a8 <LCD_Write_COM>
 2000558:	e0bffe17 	ldw	r2,-8(fp)
 200055c:	10bfffcc 	andi	r2,r2,65535
 2000560:	1009883a 	mov	r4,r2
 2000564:	20003100 	call	2000310 <LCD_Write_DATA>
 2000568:	010014c4 	movi	r4,83
 200056c:	20002a80 	call	20002a8 <LCD_Write_COM>
 2000570:	e0bfff17 	ldw	r2,-4(fp)
 2000574:	10bfffcc 	andi	r2,r2,65535
 2000578:	1009883a 	mov	r4,r2
 200057c:	20003100 	call	2000310 <LCD_Write_DATA>
 2000580:	01000884 	movi	r4,34
 2000584:	20002a80 	call	20002a8 <LCD_Write_COM>
 2000588:	e037883a 	mov	sp,fp
 200058c:	dfc00117 	ldw	ra,4(sp)
 2000590:	df000017 	ldw	fp,0(sp)
 2000594:	dec00204 	addi	sp,sp,8
 2000598:	f800283a 	ret

0200059c <LCD_write_english>:
 200059c:	defffa04 	addi	sp,sp,-24
 20005a0:	dfc00515 	stw	ra,20(sp)
 20005a4:	df000415 	stw	fp,16(sp)
 20005a8:	df000404 	addi	fp,sp,16
 20005ac:	2005883a 	mov	r2,r4
 20005b0:	e17ffe15 	stw	r5,-8(fp)
 20005b4:	e1bfff15 	stw	r6,-4(fp)
 20005b8:	e0bffd05 	stb	r2,-12(fp)
 20005bc:	01000884 	movi	r4,34
 20005c0:	20002a80 	call	20002a8 <LCD_Write_COM>
 20005c4:	e03ffc45 	stb	zero,-15(fp)
 20005c8:	00002606 	br	2000664 <LCD_write_english+0xc8>
 20005cc:	e0bffd03 	ldbu	r2,-12(fp)
 20005d0:	113ff804 	addi	r4,r2,-32
 20005d4:	e0bffc43 	ldbu	r2,-15(fp)
 20005d8:	00c080b4 	movhi	r3,514
 20005dc:	18f8d704 	addi	r3,r3,-7332
 20005e0:	2008913a 	slli	r4,r4,4
 20005e4:	2085883a 	add	r2,r4,r2
 20005e8:	1885883a 	add	r2,r3,r2
 20005ec:	10800003 	ldbu	r2,0(r2)
 20005f0:	e0bffc05 	stb	r2,-16(fp)
 20005f4:	e03ffc85 	stb	zero,-14(fp)
 20005f8:	00001406 	br	200064c <LCD_write_english+0xb0>
 20005fc:	e0bffc03 	ldbu	r2,-16(fp)
 2000600:	10803fcc 	andi	r2,r2,255
 2000604:	1080201c 	xori	r2,r2,128
 2000608:	10bfe004 	addi	r2,r2,-128
 200060c:	1000050e 	bge	r2,zero,2000624 <LCD_write_english+0x88>
 2000610:	e0bffe17 	ldw	r2,-8(fp)
 2000614:	10bfffcc 	andi	r2,r2,65535
 2000618:	1009883a 	mov	r4,r2
 200061c:	20003100 	call	2000310 <LCD_Write_DATA>
 2000620:	00000406 	br	2000634 <LCD_write_english+0x98>
 2000624:	e0bfff17 	ldw	r2,-4(fp)
 2000628:	10bfffcc 	andi	r2,r2,65535
 200062c:	1009883a 	mov	r4,r2
 2000630:	20003100 	call	2000310 <LCD_Write_DATA>
 2000634:	e0bffc03 	ldbu	r2,-16(fp)
 2000638:	1085883a 	add	r2,r2,r2
 200063c:	e0bffc05 	stb	r2,-16(fp)
 2000640:	e0bffc83 	ldbu	r2,-14(fp)
 2000644:	10800044 	addi	r2,r2,1
 2000648:	e0bffc85 	stb	r2,-14(fp)
 200064c:	e0bffc83 	ldbu	r2,-14(fp)
 2000650:	10800230 	cmpltui	r2,r2,8
 2000654:	103fe91e 	bne	r2,zero,20005fc <__alt_mem_onchip_memory+0xfdfff5fc>
 2000658:	e0bffc43 	ldbu	r2,-15(fp)
 200065c:	10800044 	addi	r2,r2,1
 2000660:	e0bffc45 	stb	r2,-15(fp)
 2000664:	e0bffc43 	ldbu	r2,-15(fp)
 2000668:	10800430 	cmpltui	r2,r2,16
 200066c:	103fd71e 	bne	r2,zero,20005cc <__alt_mem_onchip_memory+0xfdfff5cc>
 2000670:	e037883a 	mov	sp,fp
 2000674:	dfc00117 	ldw	ra,4(sp)
 2000678:	df000017 	ldw	fp,0(sp)
 200067c:	dec00204 	addi	sp,sp,8
 2000680:	f800283a 	ret

02000684 <LCD_write_english_string>:
 2000684:	defff904 	addi	sp,sp,-28
 2000688:	dfc00615 	stw	ra,24(sp)
 200068c:	df000515 	stw	fp,20(sp)
 2000690:	df000504 	addi	fp,sp,20
 2000694:	e13ffc15 	stw	r4,-16(fp)
 2000698:	2805883a 	mov	r2,r5
 200069c:	e1bffe15 	stw	r6,-8(fp)
 20006a0:	e1ffff15 	stw	r7,-4(fp)
 20006a4:	e0bffd05 	stb	r2,-12(fp)
 20006a8:	e03ffb15 	stw	zero,-20(fp)
 20006ac:	0007883a 	mov	r3,zero
 20006b0:	00810034 	movhi	r2,1024
 20006b4:	108c8404 	addi	r2,r2,12816
 20006b8:	10c00035 	stwio	r3,0(r2)
 20006bc:	00001606 	br	2000718 <LCD_write_english_string+0x94>
 20006c0:	e0fffd03 	ldbu	r3,-12(fp)
 20006c4:	e13ffc17 	ldw	r4,-16(fp)
 20006c8:	e0bffb17 	ldw	r2,-20(fp)
 20006cc:	2085883a 	add	r2,r4,r2
 20006d0:	1809883a 	mov	r4,r3
 20006d4:	100b883a 	mov	r5,r2
 20006d8:	01800404 	movi	r6,16
 20006dc:	01c00204 	movi	r7,8
 20006e0:	20007440 	call	2000744 <Lcd_SetBox>
 20006e4:	e0bffe17 	ldw	r2,-8(fp)
 20006e8:	10800003 	ldbu	r2,0(r2)
 20006ec:	10803fcc 	andi	r2,r2,255
 20006f0:	1009883a 	mov	r4,r2
 20006f4:	e17fff17 	ldw	r5,-4(fp)
 20006f8:	e1800217 	ldw	r6,8(fp)
 20006fc:	200059c0 	call	200059c <LCD_write_english>
 2000700:	e0bffb17 	ldw	r2,-20(fp)
 2000704:	10800204 	addi	r2,r2,8
 2000708:	e0bffb15 	stw	r2,-20(fp)
 200070c:	e0bffe17 	ldw	r2,-8(fp)
 2000710:	10800044 	addi	r2,r2,1
 2000714:	e0bffe15 	stw	r2,-8(fp)
 2000718:	e0bffe17 	ldw	r2,-8(fp)
 200071c:	10800003 	ldbu	r2,0(r2)
 2000720:	10803fcc 	andi	r2,r2,255
 2000724:	1080201c 	xori	r2,r2,128
 2000728:	10bfe004 	addi	r2,r2,-128
 200072c:	103fe41e 	bne	r2,zero,20006c0 <__alt_mem_onchip_memory+0xfdfff6c0>
 2000730:	e037883a 	mov	sp,fp
 2000734:	dfc00117 	ldw	ra,4(sp)
 2000738:	df000017 	ldw	fp,0(sp)
 200073c:	dec00204 	addi	sp,sp,8
 2000740:	f800283a 	ret

02000744 <Lcd_SetBox>:
 2000744:	defffa04 	addi	sp,sp,-24
 2000748:	dfc00515 	stw	ra,20(sp)
 200074c:	df000415 	stw	fp,16(sp)
 2000750:	df000404 	addi	fp,sp,16
 2000754:	2007883a 	mov	r3,r4
 2000758:	e17ffd15 	stw	r5,-12(fp)
 200075c:	3005883a 	mov	r2,r6
 2000760:	e1ffff15 	stw	r7,-4(fp)
 2000764:	e0fffc05 	stb	r3,-16(fp)
 2000768:	e0bffe05 	stb	r2,-8(fp)
 200076c:	e0fffc03 	ldbu	r3,-16(fp)
 2000770:	e0bffd17 	ldw	r2,-12(fp)
 2000774:	01000e04 	movi	r4,56
 2000778:	2085c83a 	sub	r2,r4,r2
 200077c:	10803fcc 	andi	r2,r2,255
 2000780:	1809883a 	mov	r4,r3
 2000784:	100b883a 	mov	r5,r2
 2000788:	20008000 	call	2000800 <LCD_SetCursor>
 200078c:	e0bffc03 	ldbu	r2,-16(fp)
 2000790:	01001404 	movi	r4,80
 2000794:	100b883a 	mov	r5,r2
 2000798:	20003780 	call	2000378 <LCD_WR_REG>
 200079c:	e0fffc03 	ldbu	r3,-16(fp)
 20007a0:	e0bffe03 	ldbu	r2,-8(fp)
 20007a4:	1885883a 	add	r2,r3,r2
 20007a8:	10bfffc4 	addi	r2,r2,-1
 20007ac:	01001444 	movi	r4,81
 20007b0:	100b883a 	mov	r5,r2
 20007b4:	20003780 	call	2000378 <LCD_WR_REG>
 20007b8:	00c04e04 	movi	r3,312
 20007bc:	e0bffd17 	ldw	r2,-12(fp)
 20007c0:	1885c83a 	sub	r2,r3,r2
 20007c4:	01001484 	movi	r4,82
 20007c8:	100b883a 	mov	r5,r2
 20007cc:	20003780 	call	2000378 <LCD_WR_REG>
 20007d0:	e0ffff17 	ldw	r3,-4(fp)
 20007d4:	e0bffd17 	ldw	r2,-12(fp)
 20007d8:	1885c83a 	sub	r2,r3,r2
 20007dc:	10804dc4 	addi	r2,r2,311
 20007e0:	010014c4 	movi	r4,83
 20007e4:	100b883a 	mov	r5,r2
 20007e8:	20003780 	call	2000378 <LCD_WR_REG>
 20007ec:	e037883a 	mov	sp,fp
 20007f0:	dfc00117 	ldw	ra,4(sp)
 20007f4:	df000017 	ldw	fp,0(sp)
 20007f8:	dec00204 	addi	sp,sp,8
 20007fc:	f800283a 	ret

02000800 <LCD_SetCursor>:
 2000800:	defffc04 	addi	sp,sp,-16
 2000804:	dfc00315 	stw	ra,12(sp)
 2000808:	df000215 	stw	fp,8(sp)
 200080c:	df000204 	addi	fp,sp,8
 2000810:	2007883a 	mov	r3,r4
 2000814:	2805883a 	mov	r2,r5
 2000818:	e0fffe05 	stb	r3,-8(fp)
 200081c:	e0bfff05 	stb	r2,-4(fp)
 2000820:	e0bffe03 	ldbu	r2,-8(fp)
 2000824:	01000804 	movi	r4,32
 2000828:	100b883a 	mov	r5,r2
 200082c:	20003780 	call	2000378 <LCD_WR_REG>
 2000830:	e0bfff03 	ldbu	r2,-4(fp)
 2000834:	01000844 	movi	r4,33
 2000838:	100b883a 	mov	r5,r2
 200083c:	20003780 	call	2000378 <LCD_WR_REG>
 2000840:	e037883a 	mov	sp,fp
 2000844:	dfc00117 	ldw	ra,4(sp)
 2000848:	df000017 	ldw	fp,0(sp)
 200084c:	dec00204 	addi	sp,sp,8
 2000850:	f800283a 	ret

02000854 <LCD_reset>:
 2000854:	defffe04 	addi	sp,sp,-8
 2000858:	dfc00115 	stw	ra,4(sp)
 200085c:	df000015 	stw	fp,0(sp)
 2000860:	d839883a 	mov	fp,sp
 2000864:	0007883a 	mov	r3,zero
 2000868:	00810034 	movhi	r2,1024
 200086c:	108c8004 	addi	r2,r2,12800
 2000870:	10c00035 	stwio	r3,0(r2)
 2000874:	01000144 	movi	r4,5
 2000878:	20002040 	call	2000204 <delayms>
 200087c:	00c00044 	movi	r3,1
 2000880:	00810034 	movhi	r2,1024
 2000884:	108c8004 	addi	r2,r2,12800
 2000888:	10c00035 	stwio	r3,0(r2)
 200088c:	01000144 	movi	r4,5
 2000890:	20002040 	call	2000204 <delayms>
 2000894:	e037883a 	mov	sp,fp
 2000898:	dfc00117 	ldw	ra,4(sp)
 200089c:	df000017 	ldw	fp,0(sp)
 20008a0:	dec00204 	addi	sp,sp,8
 20008a4:	f800283a 	ret

020008a8 <Pant>:
 20008a8:	defffb04 	addi	sp,sp,-20
 20008ac:	dfc00415 	stw	ra,16(sp)
 20008b0:	df000315 	stw	fp,12(sp)
 20008b4:	df000304 	addi	fp,sp,12
 20008b8:	2005883a 	mov	r2,r4
 20008bc:	e0bfff0d 	sth	r2,-4(fp)
 20008c0:	0009883a 	mov	r4,zero
 20008c4:	000b883a 	mov	r5,zero
 20008c8:	01803bc4 	movi	r6,239
 20008cc:	01c04fc4 	movi	r7,319
 20008d0:	20004d00 	call	20004d0 <Address_set>
 20008d4:	e03ffd15 	stw	zero,-12(fp)
 20008d8:	00000e06 	br	2000914 <Pant+0x6c>
 20008dc:	e03ffe15 	stw	zero,-8(fp)
 20008e0:	00000606 	br	20008fc <Pant+0x54>
 20008e4:	e0bfff0b 	ldhu	r2,-4(fp)
 20008e8:	1009883a 	mov	r4,r2
 20008ec:	20003100 	call	2000310 <LCD_Write_DATA>
 20008f0:	e0bffe17 	ldw	r2,-8(fp)
 20008f4:	10800044 	addi	r2,r2,1
 20008f8:	e0bffe15 	stw	r2,-8(fp)
 20008fc:	e0bffe17 	ldw	r2,-8(fp)
 2000900:	10803c10 	cmplti	r2,r2,240
 2000904:	103ff71e 	bne	r2,zero,20008e4 <__alt_mem_onchip_memory+0xfdfff8e4>
 2000908:	e0bffd17 	ldw	r2,-12(fp)
 200090c:	10800044 	addi	r2,r2,1
 2000910:	e0bffd15 	stw	r2,-12(fp)
 2000914:	e0bffd17 	ldw	r2,-12(fp)
 2000918:	10805010 	cmplti	r2,r2,320
 200091c:	103fef1e 	bne	r2,zero,20008dc <__alt_mem_onchip_memory+0xfdfff8dc>
 2000920:	e037883a 	mov	sp,fp
 2000924:	dfc00117 	ldw	ra,4(sp)
 2000928:	df000017 	ldw	fp,0(sp)
 200092c:	dec00204 	addi	sp,sp,8
 2000930:	f800283a 	ret

02000934 <LCD_Init>:
 2000934:	defffe04 	addi	sp,sp,-8
 2000938:	dfc00115 	stw	ra,4(sp)
 200093c:	df000015 	stw	fp,0(sp)
 2000940:	d839883a 	mov	fp,sp
 2000944:	00ffffd4 	movui	r3,65535
 2000948:	00810034 	movhi	r2,1024
 200094c:	108c9104 	addi	r2,r2,12868
 2000950:	10c00035 	stwio	r3,0(r2)
 2000954:	0009883a 	mov	r4,zero
 2000958:	01400044 	movi	r5,1
 200095c:	20003780 	call	2000378 <LCD_WR_REG>
 2000960:	01000144 	movi	r4,5
 2000964:	20002040 	call	2000204 <delayms>
 2000968:	00c00044 	movi	r3,1
 200096c:	00810034 	movhi	r2,1024
 2000970:	108c8004 	addi	r2,r2,12800
 2000974:	10c00035 	stwio	r3,0(r2)
 2000978:	01000144 	movi	r4,5
 200097c:	20002040 	call	2000204 <delayms>
 2000980:	0007883a 	mov	r3,zero
 2000984:	00810034 	movhi	r2,1024
 2000988:	108c8004 	addi	r2,r2,12800
 200098c:	10c00035 	stwio	r3,0(r2)
 2000990:	01000144 	movi	r4,5
 2000994:	20002040 	call	2000204 <delayms>
 2000998:	00c00044 	movi	r3,1
 200099c:	00810034 	movhi	r2,1024
 20009a0:	108c8004 	addi	r2,r2,12800
 20009a4:	10c00035 	stwio	r3,0(r2)
 20009a8:	00c00044 	movi	r3,1
 20009ac:	00810034 	movhi	r2,1024
 20009b0:	108c8404 	addi	r2,r2,12816
 20009b4:	10c00035 	stwio	r3,0(r2)
 20009b8:	00c00044 	movi	r3,1
 20009bc:	00810034 	movhi	r2,1024
 20009c0:	108c6404 	addi	r2,r2,12688
 20009c4:	10c00035 	stwio	r3,0(r2)
 20009c8:	00c00044 	movi	r3,1
 20009cc:	00810034 	movhi	r2,1024
 20009d0:	108c8804 	addi	r2,r2,12832
 20009d4:	10c00035 	stwio	r3,0(r2)
 20009d8:	01000144 	movi	r4,5
 20009dc:	20002040 	call	2000204 <delayms>
 20009e0:	0007883a 	mov	r3,zero
 20009e4:	00810034 	movhi	r2,1024
 20009e8:	108c8404 	addi	r2,r2,12816
 20009ec:	10c00035 	stwio	r3,0(r2)
 20009f0:	01000044 	movi	r4,1
 20009f4:	01404004 	movi	r5,256
 20009f8:	20003780 	call	2000378 <LCD_WR_REG>
 20009fc:	01000084 	movi	r4,2
 2000a00:	017fffd4 	movui	r5,65535
 2000a04:	20003780 	call	2000378 <LCD_WR_REG>
 2000a08:	010000c4 	movi	r4,3
 2000a0c:	01440604 	movi	r5,4120
 2000a10:	20003780 	call	2000378 <LCD_WR_REG>
 2000a14:	01000104 	movi	r4,4
 2000a18:	000b883a 	mov	r5,zero
 2000a1c:	20003780 	call	2000378 <LCD_WR_REG>
 2000a20:	01000204 	movi	r4,8
 2000a24:	01408084 	movi	r5,514
 2000a28:	20003780 	call	2000378 <LCD_WR_REG>
 2000a2c:	01000244 	movi	r4,9
 2000a30:	000b883a 	mov	r5,zero
 2000a34:	20003780 	call	2000378 <LCD_WR_REG>
 2000a38:	01000284 	movi	r4,10
 2000a3c:	000b883a 	mov	r5,zero
 2000a40:	20003780 	call	2000378 <LCD_WR_REG>
 2000a44:	01000304 	movi	r4,12
 2000a48:	000b883a 	mov	r5,zero
 2000a4c:	20003780 	call	2000378 <LCD_WR_REG>
 2000a50:	01000344 	movi	r4,13
 2000a54:	000b883a 	mov	r5,zero
 2000a58:	20003780 	call	2000378 <LCD_WR_REG>
 2000a5c:	010003c4 	movi	r4,15
 2000a60:	01403004 	movi	r5,192
 2000a64:	20003780 	call	2000378 <LCD_WR_REG>
 2000a68:	01000c84 	movi	r4,50
 2000a6c:	20002040 	call	2000204 <delayms>
 2000a70:	010001c4 	movi	r4,7
 2000a74:	01404cc4 	movi	r5,307
 2000a78:	20003780 	call	2000378 <LCD_WR_REG>
 2000a7c:	01000c84 	movi	r4,50
 2000a80:	20002040 	call	2000204 <delayms>
 2000a84:	01000404 	movi	r4,16
 2000a88:	0145ac04 	movi	r5,5808
 2000a8c:	20003780 	call	2000378 <LCD_WR_REG>
 2000a90:	01000444 	movi	r4,17
 2000a94:	01400044 	movi	r5,1
 2000a98:	20003780 	call	2000378 <LCD_WR_REG>
 2000a9c:	010005c4 	movi	r4,23
 2000aa0:	01400044 	movi	r5,1
 2000aa4:	20003780 	call	2000378 <LCD_WR_REG>
 2000aa8:	01000484 	movi	r4,18
 2000aac:	01404e04 	movi	r5,312
 2000ab0:	20003780 	call	2000378 <LCD_WR_REG>
 2000ab4:	010004c4 	movi	r4,19
 2000ab8:	01420004 	movi	r5,2048
 2000abc:	20003780 	call	2000378 <LCD_WR_REG>
 2000ac0:	01000a44 	movi	r4,41
 2000ac4:	01400244 	movi	r5,9
 2000ac8:	20003780 	call	2000378 <LCD_WR_REG>
 2000acc:	01000a84 	movi	r4,42
 2000ad0:	01400244 	movi	r5,9
 2000ad4:	20003780 	call	2000378 <LCD_WR_REG>
 2000ad8:	01001404 	movi	r4,80
 2000adc:	000b883a 	mov	r5,zero
 2000ae0:	20003780 	call	2000378 <LCD_WR_REG>
 2000ae4:	01001444 	movi	r4,81
 2000ae8:	01403bc4 	movi	r5,239
 2000aec:	20003780 	call	2000378 <LCD_WR_REG>
 2000af0:	01001484 	movi	r4,82
 2000af4:	000b883a 	mov	r5,zero
 2000af8:	20003780 	call	2000378 <LCD_WR_REG>
 2000afc:	010014c4 	movi	r4,83
 2000b00:	01404fc4 	movi	r5,319
 2000b04:	20003780 	call	2000378 <LCD_WR_REG>
 2000b08:	01001804 	movi	r4,96
 2000b0c:	0149c004 	movi	r5,9984
 2000b10:	20003780 	call	2000378 <LCD_WR_REG>
 2000b14:	01001844 	movi	r4,97
 2000b18:	01400044 	movi	r5,1
 2000b1c:	20003780 	call	2000378 <LCD_WR_REG>
 2000b20:	01001a84 	movi	r4,106
 2000b24:	000b883a 	mov	r5,zero
 2000b28:	20003780 	call	2000378 <LCD_WR_REG>
 2000b2c:	01002004 	movi	r4,128
 2000b30:	000b883a 	mov	r5,zero
 2000b34:	20003780 	call	2000378 <LCD_WR_REG>
 2000b38:	01002044 	movi	r4,129
 2000b3c:	000b883a 	mov	r5,zero
 2000b40:	20003780 	call	2000378 <LCD_WR_REG>
 2000b44:	01002084 	movi	r4,130
 2000b48:	000b883a 	mov	r5,zero
 2000b4c:	20003780 	call	2000378 <LCD_WR_REG>
 2000b50:	010020c4 	movi	r4,131
 2000b54:	000b883a 	mov	r5,zero
 2000b58:	20003780 	call	2000378 <LCD_WR_REG>
 2000b5c:	01002104 	movi	r4,132
 2000b60:	000b883a 	mov	r5,zero
 2000b64:	20003780 	call	2000378 <LCD_WR_REG>
 2000b68:	01002144 	movi	r4,133
 2000b6c:	000b883a 	mov	r5,zero
 2000b70:	20003780 	call	2000378 <LCD_WR_REG>
 2000b74:	01002404 	movi	r4,144
 2000b78:	01400404 	movi	r5,16
 2000b7c:	20003780 	call	2000378 <LCD_WR_REG>
 2000b80:	01002484 	movi	r4,146
 2000b84:	000b883a 	mov	r5,zero
 2000b88:	20003780 	call	2000378 <LCD_WR_REG>
 2000b8c:	010024c4 	movi	r4,147
 2000b90:	014000c4 	movi	r5,3
 2000b94:	20003780 	call	2000378 <LCD_WR_REG>
 2000b98:	01002544 	movi	r4,149
 2000b9c:	000b883a 	mov	r5,zero
 2000ba0:	20003780 	call	2000378 <LCD_WR_REG>
 2000ba4:	010025c4 	movi	r4,151
 2000ba8:	000b883a 	mov	r5,zero
 2000bac:	20003780 	call	2000378 <LCD_WR_REG>
 2000bb0:	01002604 	movi	r4,152
 2000bb4:	000b883a 	mov	r5,zero
 2000bb8:	20003780 	call	2000378 <LCD_WR_REG>
 2000bbc:	010001c4 	movi	r4,7
 2000bc0:	01405cc4 	movi	r5,371
 2000bc4:	20003780 	call	2000378 <LCD_WR_REG>
 2000bc8:	01000c84 	movi	r4,50
 2000bcc:	20002040 	call	2000204 <delayms>
 2000bd0:	00c00044 	movi	r3,1
 2000bd4:	00810034 	movhi	r2,1024
 2000bd8:	108c8404 	addi	r2,r2,12816
 2000bdc:	10c00035 	stwio	r3,0(r2)
 2000be0:	e037883a 	mov	sp,fp
 2000be4:	dfc00117 	ldw	ra,4(sp)
 2000be8:	df000017 	ldw	fp,0(sp)
 2000bec:	dec00204 	addi	sp,sp,8
 2000bf0:	f800283a 	ret

02000bf4 <startSCCB>:
 2000bf4:	defffe04 	addi	sp,sp,-8
 2000bf8:	dfc00115 	stw	ra,4(sp)
 2000bfc:	df000015 	stw	fp,0(sp)
 2000c00:	d839883a 	mov	fp,sp
 2000c04:	00c00044 	movi	r3,1
 2000c08:	00810034 	movhi	r2,1024
 2000c0c:	108c7d04 	addi	r2,r2,12788
 2000c10:	10c00035 	stwio	r3,0(r2)
 2000c14:	00c00044 	movi	r3,1
 2000c18:	00810034 	movhi	r2,1024
 2000c1c:	108c7c04 	addi	r2,r2,12784
 2000c20:	10c00035 	stwio	r3,0(r2)
 2000c24:	01001904 	movi	r4,100
 2000c28:	200c1880 	call	200c188 <usleep>
 2000c2c:	00c00044 	movi	r3,1
 2000c30:	00810034 	movhi	r2,1024
 2000c34:	108c7804 	addi	r2,r2,12768
 2000c38:	10c00035 	stwio	r3,0(r2)
 2000c3c:	01001904 	movi	r4,100
 2000c40:	200c1880 	call	200c188 <usleep>
 2000c44:	0007883a 	mov	r3,zero
 2000c48:	00810034 	movhi	r2,1024
 2000c4c:	108c7c04 	addi	r2,r2,12784
 2000c50:	10c00035 	stwio	r3,0(r2)
 2000c54:	01001904 	movi	r4,100
 2000c58:	200c1880 	call	200c188 <usleep>
 2000c5c:	0007883a 	mov	r3,zero
 2000c60:	00810034 	movhi	r2,1024
 2000c64:	108c7804 	addi	r2,r2,12768
 2000c68:	10c00035 	stwio	r3,0(r2)
 2000c6c:	01001904 	movi	r4,100
 2000c70:	200c1880 	call	200c188 <usleep>
 2000c74:	e037883a 	mov	sp,fp
 2000c78:	dfc00117 	ldw	ra,4(sp)
 2000c7c:	df000017 	ldw	fp,0(sp)
 2000c80:	dec00204 	addi	sp,sp,8
 2000c84:	f800283a 	ret

02000c88 <stopSCCB>:
 2000c88:	defffe04 	addi	sp,sp,-8
 2000c8c:	dfc00115 	stw	ra,4(sp)
 2000c90:	df000015 	stw	fp,0(sp)
 2000c94:	d839883a 	mov	fp,sp
 2000c98:	00c00044 	movi	r3,1
 2000c9c:	00810034 	movhi	r2,1024
 2000ca0:	108c7d04 	addi	r2,r2,12788
 2000ca4:	10c00035 	stwio	r3,0(r2)
 2000ca8:	0007883a 	mov	r3,zero
 2000cac:	00810034 	movhi	r2,1024
 2000cb0:	108c7c04 	addi	r2,r2,12784
 2000cb4:	10c00035 	stwio	r3,0(r2)
 2000cb8:	01001904 	movi	r4,100
 2000cbc:	200c1880 	call	200c188 <usleep>
 2000cc0:	00c00044 	movi	r3,1
 2000cc4:	00810034 	movhi	r2,1024
 2000cc8:	108c7804 	addi	r2,r2,12768
 2000ccc:	10c00035 	stwio	r3,0(r2)
 2000cd0:	01001904 	movi	r4,100
 2000cd4:	200c1880 	call	200c188 <usleep>
 2000cd8:	00c00044 	movi	r3,1
 2000cdc:	00810034 	movhi	r2,1024
 2000ce0:	108c7c04 	addi	r2,r2,12784
 2000ce4:	10c00035 	stwio	r3,0(r2)
 2000ce8:	01001904 	movi	r4,100
 2000cec:	200c1880 	call	200c188 <usleep>
 2000cf0:	e037883a 	mov	sp,fp
 2000cf4:	dfc00117 	ldw	ra,4(sp)
 2000cf8:	df000017 	ldw	fp,0(sp)
 2000cfc:	dec00204 	addi	sp,sp,8
 2000d00:	f800283a 	ret

02000d04 <noAck>:
 2000d04:	defffe04 	addi	sp,sp,-8
 2000d08:	dfc00115 	stw	ra,4(sp)
 2000d0c:	df000015 	stw	fp,0(sp)
 2000d10:	d839883a 	mov	fp,sp
 2000d14:	0007883a 	mov	r3,zero
 2000d18:	00810034 	movhi	r2,1024
 2000d1c:	108c7d04 	addi	r2,r2,12788
 2000d20:	10c00035 	stwio	r3,0(r2)
 2000d24:	00c00044 	movi	r3,1
 2000d28:	00810034 	movhi	r2,1024
 2000d2c:	108c7c04 	addi	r2,r2,12784
 2000d30:	10c00035 	stwio	r3,0(r2)
 2000d34:	01001904 	movi	r4,100
 2000d38:	200c1880 	call	200c188 <usleep>
 2000d3c:	00c00044 	movi	r3,1
 2000d40:	00810034 	movhi	r2,1024
 2000d44:	108c7804 	addi	r2,r2,12768
 2000d48:	10c00035 	stwio	r3,0(r2)
 2000d4c:	01001904 	movi	r4,100
 2000d50:	200c1880 	call	200c188 <usleep>
 2000d54:	0007883a 	mov	r3,zero
 2000d58:	00810034 	movhi	r2,1024
 2000d5c:	108c7804 	addi	r2,r2,12768
 2000d60:	10c00035 	stwio	r3,0(r2)
 2000d64:	01001904 	movi	r4,100
 2000d68:	200c1880 	call	200c188 <usleep>
 2000d6c:	0007883a 	mov	r3,zero
 2000d70:	00810034 	movhi	r2,1024
 2000d74:	108c7c04 	addi	r2,r2,12784
 2000d78:	10c00035 	stwio	r3,0(r2)
 2000d7c:	01001904 	movi	r4,100
 2000d80:	200c1880 	call	200c188 <usleep>
 2000d84:	e037883a 	mov	sp,fp
 2000d88:	dfc00117 	ldw	ra,4(sp)
 2000d8c:	df000017 	ldw	fp,0(sp)
 2000d90:	dec00204 	addi	sp,sp,8
 2000d94:	f800283a 	ret

02000d98 <SCCBwriteByte>:
 2000d98:	defffc04 	addi	sp,sp,-16
 2000d9c:	dfc00315 	stw	ra,12(sp)
 2000da0:	df000215 	stw	fp,8(sp)
 2000da4:	df000204 	addi	fp,sp,8
 2000da8:	2005883a 	mov	r2,r4
 2000dac:	e0bfff05 	stb	r2,-4(fp)
 2000db0:	e03ffe05 	stb	zero,-8(fp)
 2000db4:	00001f06 	br	2000e34 <SCCBwriteByte+0x9c>
 2000db8:	e0ffff03 	ldbu	r3,-4(fp)
 2000dbc:	e0bffe03 	ldbu	r2,-8(fp)
 2000dc0:	1884983a 	sll	r2,r3,r2
 2000dc4:	1080200c 	andi	r2,r2,128
 2000dc8:	10000526 	beq	r2,zero,2000de0 <SCCBwriteByte+0x48>
 2000dcc:	00c00044 	movi	r3,1
 2000dd0:	00810034 	movhi	r2,1024
 2000dd4:	108c7c04 	addi	r2,r2,12784
 2000dd8:	10c00035 	stwio	r3,0(r2)
 2000ddc:	00000406 	br	2000df0 <SCCBwriteByte+0x58>
 2000de0:	0007883a 	mov	r3,zero
 2000de4:	00810034 	movhi	r2,1024
 2000de8:	108c7c04 	addi	r2,r2,12784
 2000dec:	10c00035 	stwio	r3,0(r2)
 2000df0:	01001904 	movi	r4,100
 2000df4:	200c1880 	call	200c188 <usleep>
 2000df8:	00c00044 	movi	r3,1
 2000dfc:	00810034 	movhi	r2,1024
 2000e00:	108c7804 	addi	r2,r2,12768
 2000e04:	10c00035 	stwio	r3,0(r2)
 2000e08:	01001904 	movi	r4,100
 2000e0c:	200c1880 	call	200c188 <usleep>
 2000e10:	0007883a 	mov	r3,zero
 2000e14:	00810034 	movhi	r2,1024
 2000e18:	108c7804 	addi	r2,r2,12768
 2000e1c:	10c00035 	stwio	r3,0(r2)
 2000e20:	01001904 	movi	r4,100
 2000e24:	200c1880 	call	200c188 <usleep>
 2000e28:	e0bffe03 	ldbu	r2,-8(fp)
 2000e2c:	10800044 	addi	r2,r2,1
 2000e30:	e0bffe05 	stb	r2,-8(fp)
 2000e34:	e0bffe03 	ldbu	r2,-8(fp)
 2000e38:	10800230 	cmpltui	r2,r2,8
 2000e3c:	103fde1e 	bne	r2,zero,2000db8 <__alt_mem_onchip_memory+0xfdfffdb8>
 2000e40:	01001904 	movi	r4,100
 2000e44:	200c1880 	call	200c188 <usleep>
 2000e48:	0007883a 	mov	r3,zero
 2000e4c:	00810034 	movhi	r2,1024
 2000e50:	108c7d04 	addi	r2,r2,12788
 2000e54:	10c00035 	stwio	r3,0(r2)
 2000e58:	01001904 	movi	r4,100
 2000e5c:	200c1880 	call	200c188 <usleep>
 2000e60:	00c00044 	movi	r3,1
 2000e64:	00810034 	movhi	r2,1024
 2000e68:	108c7804 	addi	r2,r2,12768
 2000e6c:	10c00035 	stwio	r3,0(r2)
 2000e70:	01001904 	movi	r4,100
 2000e74:	200c1880 	call	200c188 <usleep>
 2000e78:	00810034 	movhi	r2,1024
 2000e7c:	108c7c04 	addi	r2,r2,12784
 2000e80:	10800037 	ldwio	r2,0(r2)
 2000e84:	10000226 	beq	r2,zero,2000e90 <SCCBwriteByte+0xf8>
 2000e88:	e03ffe45 	stb	zero,-7(fp)
 2000e8c:	00000206 	br	2000e98 <SCCBwriteByte+0x100>
 2000e90:	00800044 	movi	r2,1
 2000e94:	e0bffe45 	stb	r2,-7(fp)
 2000e98:	0007883a 	mov	r3,zero
 2000e9c:	00810034 	movhi	r2,1024
 2000ea0:	108c7804 	addi	r2,r2,12768
 2000ea4:	10c00035 	stwio	r3,0(r2)
 2000ea8:	01001904 	movi	r4,100
 2000eac:	200c1880 	call	200c188 <usleep>
 2000eb0:	00c00044 	movi	r3,1
 2000eb4:	00810034 	movhi	r2,1024
 2000eb8:	108c7d04 	addi	r2,r2,12788
 2000ebc:	10c00035 	stwio	r3,0(r2)
 2000ec0:	e0bffe43 	ldbu	r2,-7(fp)
 2000ec4:	e037883a 	mov	sp,fp
 2000ec8:	dfc00117 	ldw	ra,4(sp)
 2000ecc:	df000017 	ldw	fp,0(sp)
 2000ed0:	dec00204 	addi	sp,sp,8
 2000ed4:	f800283a 	ret

02000ed8 <SCCBreadByte>:
 2000ed8:	defffd04 	addi	sp,sp,-12
 2000edc:	dfc00215 	stw	ra,8(sp)
 2000ee0:	df000115 	stw	fp,4(sp)
 2000ee4:	df000104 	addi	fp,sp,4
 2000ee8:	e03fff05 	stb	zero,-4(fp)
 2000eec:	0007883a 	mov	r3,zero
 2000ef0:	00810034 	movhi	r2,1024
 2000ef4:	108c7d04 	addi	r2,r2,12788
 2000ef8:	10c00035 	stwio	r3,0(r2)
 2000efc:	01001904 	movi	r4,100
 2000f00:	200c1880 	call	200c188 <usleep>
 2000f04:	00800204 	movi	r2,8
 2000f08:	e0bfff45 	stb	r2,-3(fp)
 2000f0c:	00001b06 	br	2000f7c <SCCBreadByte+0xa4>
 2000f10:	01001904 	movi	r4,100
 2000f14:	200c1880 	call	200c188 <usleep>
 2000f18:	00c00044 	movi	r3,1
 2000f1c:	00810034 	movhi	r2,1024
 2000f20:	108c7804 	addi	r2,r2,12768
 2000f24:	10c00035 	stwio	r3,0(r2)
 2000f28:	01001904 	movi	r4,100
 2000f2c:	200c1880 	call	200c188 <usleep>
 2000f30:	e0bfff03 	ldbu	r2,-4(fp)
 2000f34:	1085883a 	add	r2,r2,r2
 2000f38:	e0bfff05 	stb	r2,-4(fp)
 2000f3c:	00810034 	movhi	r2,1024
 2000f40:	108c7c04 	addi	r2,r2,12784
 2000f44:	10800037 	ldwio	r2,0(r2)
 2000f48:	10000326 	beq	r2,zero,2000f58 <SCCBreadByte+0x80>
 2000f4c:	e0bfff03 	ldbu	r2,-4(fp)
 2000f50:	10800044 	addi	r2,r2,1
 2000f54:	e0bfff05 	stb	r2,-4(fp)
 2000f58:	0007883a 	mov	r3,zero
 2000f5c:	00810034 	movhi	r2,1024
 2000f60:	108c7804 	addi	r2,r2,12768
 2000f64:	10c00035 	stwio	r3,0(r2)
 2000f68:	01001904 	movi	r4,100
 2000f6c:	200c1880 	call	200c188 <usleep>
 2000f70:	e0bfff43 	ldbu	r2,-3(fp)
 2000f74:	10bfffc4 	addi	r2,r2,-1
 2000f78:	e0bfff45 	stb	r2,-3(fp)
 2000f7c:	e0bfff43 	ldbu	r2,-3(fp)
 2000f80:	103fe31e 	bne	r2,zero,2000f10 <__alt_mem_onchip_memory+0xfdffff10>
 2000f84:	e0bfff03 	ldbu	r2,-4(fp)
 2000f88:	e037883a 	mov	sp,fp
 2000f8c:	dfc00117 	ldw	ra,4(sp)
 2000f90:	df000017 	ldw	fp,0(sp)
 2000f94:	dec00204 	addi	sp,sp,8
 2000f98:	f800283a 	ret

02000f9c <delay_us>:
 2000f9c:	defffe04 	addi	sp,sp,-8
 2000fa0:	df000115 	stw	fp,4(sp)
 2000fa4:	df000104 	addi	fp,sp,4
 2000fa8:	e13fff15 	stw	r4,-4(fp)
 2000fac:	0001883a 	nop
 2000fb0:	e0bfff17 	ldw	r2,-4(fp)
 2000fb4:	1004c03a 	cmpne	r2,r2,zero
 2000fb8:	e0ffff17 	ldw	r3,-4(fp)
 2000fbc:	18ffffc4 	addi	r3,r3,-1
 2000fc0:	e0ffff15 	stw	r3,-4(fp)
 2000fc4:	10803fcc 	andi	r2,r2,255
 2000fc8:	103ff91e 	bne	r2,zero,2000fb0 <__alt_mem_onchip_memory+0xfdffffb0>
 2000fcc:	e037883a 	mov	sp,fp
 2000fd0:	df000017 	ldw	fp,0(sp)
 2000fd4:	dec00104 	addi	sp,sp,4
 2000fd8:	f800283a 	ret

02000fdc <delay_ms>:
 2000fdc:	defffd04 	addi	sp,sp,-12
 2000fe0:	dfc00215 	stw	ra,8(sp)
 2000fe4:	df000115 	stw	fp,4(sp)
 2000fe8:	df000104 	addi	fp,sp,4
 2000fec:	e13fff15 	stw	r4,-4(fp)
 2000ff0:	00000206 	br	2000ffc <delay_ms+0x20>
 2000ff4:	01001904 	movi	r4,100
 2000ff8:	2000f9c0 	call	2000f9c <delay_us>
 2000ffc:	e0bfff17 	ldw	r2,-4(fp)
 2001000:	1004c03a 	cmpne	r2,r2,zero
 2001004:	e0ffff17 	ldw	r3,-4(fp)
 2001008:	18ffffc4 	addi	r3,r3,-1
 200100c:	e0ffff15 	stw	r3,-4(fp)
 2001010:	10803fcc 	andi	r2,r2,255
 2001014:	103ff71e 	bne	r2,zero,2000ff4 <__alt_mem_onchip_memory+0xfdfffff4>
 2001018:	e037883a 	mov	sp,fp
 200101c:	dfc00117 	ldw	ra,4(sp)
 2001020:	df000017 	ldw	fp,0(sp)
 2001024:	dec00204 	addi	sp,sp,8
 2001028:	f800283a 	ret

0200102c <wrOV7660Reg>:
		    { 0x20,  0xff }, //COM7  QVGA RGB

};

unsigned char wrOV7660Reg(unsigned char regID, unsigned char regDat)
{
 200102c:	defffc04 	addi	sp,sp,-16
 2001030:	dfc00315 	stw	ra,12(sp)
 2001034:	df000215 	stw	fp,8(sp)
 2001038:	df000204 	addi	fp,sp,8
 200103c:	2007883a 	mov	r3,r4
 2001040:	2805883a 	mov	r2,r5
 2001044:	e0fffe05 	stb	r3,-8(fp)
 2001048:	e0bfff05 	stb	r2,-4(fp)
	startSCCB();
 200104c:	2000bf40 	call	2000bf4 <startSCCB>
	if(0==SCCBwriteByte(0x42))
 2001050:	01001084 	movi	r4,66
 2001054:	2000d980 	call	2000d98 <SCCBwriteByte>
 2001058:	10803fcc 	andi	r2,r2,255
 200105c:	1000031e 	bne	r2,zero,200106c <wrOV7660Reg+0x40>
	{
		stopSCCB();
 2001060:	2000c880 	call	2000c88 <stopSCCB>
		return(0);
 2001064:	0005883a 	mov	r2,zero
 2001068:	00001606 	br	20010c4 <wrOV7660Reg+0x98>
	}
	//usleep(100);
	delay_us(100);
 200106c:	01001904 	movi	r4,100
 2001070:	2000f9c0 	call	2000f9c <delay_us>
  	if(0==SCCBwriteByte(regID))
 2001074:	e0bffe03 	ldbu	r2,-8(fp)
 2001078:	1009883a 	mov	r4,r2
 200107c:	2000d980 	call	2000d98 <SCCBwriteByte>
 2001080:	10803fcc 	andi	r2,r2,255
 2001084:	1000031e 	bne	r2,zero,2001094 <wrOV7660Reg+0x68>
	{
		stopSCCB();
 2001088:	2000c880 	call	2000c88 <stopSCCB>
		return(0);
 200108c:	0005883a 	mov	r2,zero
 2001090:	00000c06 	br	20010c4 <wrOV7660Reg+0x98>
	}
	//usleep(100);
  	delay_us(100);
 2001094:	01001904 	movi	r4,100
 2001098:	2000f9c0 	call	2000f9c <delay_us>
  	if(0==SCCBwriteByte(regDat))
 200109c:	e0bfff03 	ldbu	r2,-4(fp)
 20010a0:	1009883a 	mov	r4,r2
 20010a4:	2000d980 	call	2000d98 <SCCBwriteByte>
 20010a8:	10803fcc 	andi	r2,r2,255
 20010ac:	1000031e 	bne	r2,zero,20010bc <wrOV7660Reg+0x90>
	{
		stopSCCB();
 20010b0:	2000c880 	call	2000c88 <stopSCCB>
		return(0);
 20010b4:	0005883a 	mov	r2,zero
 20010b8:	00000206 	br	20010c4 <wrOV7660Reg+0x98>
	}
  	stopSCCB();
 20010bc:	2000c880 	call	2000c88 <stopSCCB>
	
  	return(1);
 20010c0:	00800044 	movi	r2,1
}
 20010c4:	e037883a 	mov	sp,fp
 20010c8:	dfc00117 	ldw	ra,4(sp)
 20010cc:	df000017 	ldw	fp,0(sp)
 20010d0:	dec00204 	addi	sp,sp,8
 20010d4:	f800283a 	ret

020010d8 <rdOV7660Reg>:
////////////////////////////
//OV7660
//1-	0-
unsigned char rdOV7660Reg(unsigned char regID, unsigned char *regDat)
{
 20010d8:	defffc04 	addi	sp,sp,-16
 20010dc:	dfc00315 	stw	ra,12(sp)
 20010e0:	df000215 	stw	fp,8(sp)
 20010e4:	df000204 	addi	fp,sp,8
 20010e8:	2005883a 	mov	r2,r4
 20010ec:	e17fff15 	stw	r5,-4(fp)
 20010f0:	e0bffe05 	stb	r2,-8(fp)
	//
	startSCCB();
 20010f4:	2000bf40 	call	2000bf4 <startSCCB>
	if(0==SCCBwriteByte(0x42))
 20010f8:	01001084 	movi	r4,66
 20010fc:	2000d980 	call	2000d98 <SCCBwriteByte>
 2001100:	10803fcc 	andi	r2,r2,255
 2001104:	1000031e 	bne	r2,zero,2001114 <rdOV7660Reg+0x3c>
	{
		stopSCCB();
 2001108:	2000c880 	call	2000c88 <stopSCCB>
		return(0);
 200110c:	0005883a 	mov	r2,zero
 2001110:	00001d06 	br	2001188 <rdOV7660Reg+0xb0>
	}
	//usleep(100);
	delay_us(100);
 2001114:	01001904 	movi	r4,100
 2001118:	2000f9c0 	call	2000f9c <delay_us>
	if(0==SCCBwriteByte(regID))
 200111c:	e0bffe03 	ldbu	r2,-8(fp)
 2001120:	1009883a 	mov	r4,r2
 2001124:	2000d980 	call	2000d98 <SCCBwriteByte>
 2001128:	10803fcc 	andi	r2,r2,255
 200112c:	1000031e 	bne	r2,zero,200113c <rdOV7660Reg+0x64>
	{
		stopSCCB();
 2001130:	2000c880 	call	2000c88 <stopSCCB>
		return(0);
 2001134:	0005883a 	mov	r2,zero
 2001138:	00001306 	br	2001188 <rdOV7660Reg+0xb0>
	}
	stopSCCB();
 200113c:	2000c880 	call	2000c88 <stopSCCB>
	
	//usleep(100);
	delay_us(100);
 2001140:	01001904 	movi	r4,100
 2001144:	2000f9c0 	call	2000f9c <delay_us>
	//
	startSCCB();
 2001148:	2000bf40 	call	2000bf4 <startSCCB>
	if(0==SCCBwriteByte(0x43))
 200114c:	010010c4 	movi	r4,67
 2001150:	2000d980 	call	2000d98 <SCCBwriteByte>
 2001154:	10803fcc 	andi	r2,r2,255
 2001158:	1000031e 	bne	r2,zero,2001168 <rdOV7660Reg+0x90>
	{
		stopSCCB();
 200115c:	2000c880 	call	2000c88 <stopSCCB>
		return(0);
 2001160:	0005883a 	mov	r2,zero
 2001164:	00000806 	br	2001188 <rdOV7660Reg+0xb0>
	}
	//usleep(100);
	delay_us(100);
 2001168:	01001904 	movi	r4,100
 200116c:	2000f9c0 	call	2000f9c <delay_us>
	*regDat=SCCBreadByte();
 2001170:	2000ed80 	call	2000ed8 <SCCBreadByte>
 2001174:	e0ffff17 	ldw	r3,-4(fp)
 2001178:	18800005 	stb	r2,0(r3)
  	noAck();
 200117c:	2000d040 	call	2000d04 <noAck>
  	stopSCCB();
 2001180:	2000c880 	call	2000c88 <stopSCCB>
  	return(1);
 2001184:	00800044 	movi	r2,1
}
 2001188:	e037883a 	mov	sp,fp
 200118c:	dfc00117 	ldw	ra,4(sp)
 2001190:	df000017 	ldw	fp,0(sp)
 2001194:	dec00204 	addi	sp,sp,8
 2001198:	f800283a 	ret

0200119c <OV7660_config_window>:

//(140,16,640,480) is good for VGA
//(272,16,320,240) is good for QVGA
/* config_OV7660_window */
void OV7660_config_window(unsigned int startx,unsigned int starty,unsigned int width, unsigned int height)
{
 200119c:	defff704 	addi	sp,sp,-36
 20011a0:	dfc00815 	stw	ra,32(sp)
 20011a4:	df000715 	stw	fp,28(sp)
 20011a8:	df000704 	addi	fp,sp,28
 20011ac:	e13ffc15 	stw	r4,-16(fp)
 20011b0:	e17ffd15 	stw	r5,-12(fp)
 20011b4:	e1bffe15 	stw	r6,-8(fp)
 20011b8:	e1ffff15 	stw	r7,-4(fp)
	unsigned int endx;
	unsigned int endy;// "v*2"
	unsigned char temp_reg1, temp_reg2;
	unsigned char state, temp;
	
	endx=(startx+width);
 20011bc:	e0fffc17 	ldw	r3,-16(fp)
 20011c0:	e0bffe17 	ldw	r2,-8(fp)
 20011c4:	1885883a 	add	r2,r3,r2
 20011c8:	e0bff915 	stw	r2,-28(fp)
	endy=(starty+height+height);// "v*2"
 20011cc:	e0fffd17 	ldw	r3,-12(fp)
 20011d0:	e0bfff17 	ldw	r2,-4(fp)
 20011d4:	1887883a 	add	r3,r3,r2
 20011d8:	e0bfff17 	ldw	r2,-4(fp)
 20011dc:	1885883a 	add	r2,r3,r2
 20011e0:	e0bffa15 	stw	r2,-24(fp)
	state = rdOV7660Reg(0x03, &temp_reg1 );
 20011e4:	e0bffb84 	addi	r2,fp,-18
 20011e8:	010000c4 	movi	r4,3
 20011ec:	100b883a 	mov	r5,r2
 20011f0:	20010d80 	call	20010d8 <rdOV7660Reg>
 20011f4:	e0bffb05 	stb	r2,-20(fp)
	temp_reg1 &= 0xf0;
 20011f8:	e0fffb83 	ldbu	r3,-18(fp)
 20011fc:	00bffc04 	movi	r2,-16
 2001200:	1884703a 	and	r2,r3,r2
 2001204:	e0bffb85 	stb	r2,-18(fp)
	state = rdOV7660Reg(0x32, &temp_reg2 );
 2001208:	e0bffbc4 	addi	r2,fp,-17
 200120c:	01000c84 	movi	r4,50
 2001210:	100b883a 	mov	r5,r2
 2001214:	20010d80 	call	20010d8 <rdOV7660Reg>
 2001218:	e0bffb05 	stb	r2,-20(fp)
	temp_reg2 &= 0xc0;
 200121c:	e0fffbc3 	ldbu	r3,-17(fp)
 2001220:	00bff004 	movi	r2,-64
 2001224:	1884703a 	and	r2,r3,r2
 2001228:	e0bffbc5 	stb	r2,-17(fp)
	
	// Horizontal
	temp = temp_reg2|((endx&0x7)<<3)|(startx&0x7);
 200122c:	e0bff917 	ldw	r2,-28(fp)
 2001230:	108001cc 	andi	r2,r2,7
 2001234:	100490fa 	slli	r2,r2,3
 2001238:	1007883a 	mov	r3,r2
 200123c:	e0bffbc3 	ldbu	r2,-17(fp)
 2001240:	1884b03a 	or	r2,r3,r2
 2001244:	1007883a 	mov	r3,r2
 2001248:	e0bffc17 	ldw	r2,-16(fp)
 200124c:	108001cc 	andi	r2,r2,7
 2001250:	1884b03a 	or	r2,r3,r2
 2001254:	e0bffb45 	stb	r2,-19(fp)
	state = wrOV7660Reg(0x32, temp );
 2001258:	e0bffb43 	ldbu	r2,-19(fp)
 200125c:	01000c84 	movi	r4,50
 2001260:	100b883a 	mov	r5,r2
 2001264:	200102c0 	call	200102c <wrOV7660Reg>
 2001268:	e0bffb05 	stb	r2,-20(fp)
	temp = (startx&0x7F8)>>3;
 200126c:	e0bffc17 	ldw	r2,-16(fp)
 2001270:	1081fe0c 	andi	r2,r2,2040
 2001274:	1004d0fa 	srli	r2,r2,3
 2001278:	e0bffb45 	stb	r2,-19(fp)
	state = wrOV7660Reg(0x17, temp );
 200127c:	e0bffb43 	ldbu	r2,-19(fp)
 2001280:	010005c4 	movi	r4,23
 2001284:	100b883a 	mov	r5,r2
 2001288:	200102c0 	call	200102c <wrOV7660Reg>
 200128c:	e0bffb05 	stb	r2,-20(fp)
	temp = (endx&0x7F8)>>3;
 2001290:	e0bff917 	ldw	r2,-28(fp)
 2001294:	1081fe0c 	andi	r2,r2,2040
 2001298:	1004d0fa 	srli	r2,r2,3
 200129c:	e0bffb45 	stb	r2,-19(fp)
	state = wrOV7660Reg(0x18, temp );
 20012a0:	e0bffb43 	ldbu	r2,-19(fp)
 20012a4:	01000604 	movi	r4,24
 20012a8:	100b883a 	mov	r5,r2
 20012ac:	200102c0 	call	200102c <wrOV7660Reg>
 20012b0:	e0bffb05 	stb	r2,-20(fp)
	
	// Vertical
	temp = temp_reg1|((endy&0x3)<<2)|(starty&0x3);
 20012b4:	e0bffa17 	ldw	r2,-24(fp)
 20012b8:	108000cc 	andi	r2,r2,3
 20012bc:	1085883a 	add	r2,r2,r2
 20012c0:	1085883a 	add	r2,r2,r2
 20012c4:	1007883a 	mov	r3,r2
 20012c8:	e0bffb83 	ldbu	r2,-18(fp)
 20012cc:	1884b03a 	or	r2,r3,r2
 20012d0:	1007883a 	mov	r3,r2
 20012d4:	e0bffd17 	ldw	r2,-12(fp)
 20012d8:	108000cc 	andi	r2,r2,3
 20012dc:	1884b03a 	or	r2,r3,r2
 20012e0:	e0bffb45 	stb	r2,-19(fp)
	state = wrOV7660Reg(0x03, temp );
 20012e4:	e0bffb43 	ldbu	r2,-19(fp)
 20012e8:	010000c4 	movi	r4,3
 20012ec:	100b883a 	mov	r5,r2
 20012f0:	200102c0 	call	200102c <wrOV7660Reg>
 20012f4:	e0bffb05 	stb	r2,-20(fp)
	temp = starty>>2;
 20012f8:	e0bffd17 	ldw	r2,-12(fp)
 20012fc:	1004d0ba 	srli	r2,r2,2
 2001300:	e0bffb45 	stb	r2,-19(fp)
	state = wrOV7660Reg(0x19, temp );
 2001304:	e0bffb43 	ldbu	r2,-19(fp)
 2001308:	01000644 	movi	r4,25
 200130c:	100b883a 	mov	r5,r2
 2001310:	200102c0 	call	200102c <wrOV7660Reg>
 2001314:	e0bffb05 	stb	r2,-20(fp)
	temp = endy>>2;
 2001318:	e0bffa17 	ldw	r2,-24(fp)
 200131c:	1004d0ba 	srli	r2,r2,2
 2001320:	e0bffb45 	stb	r2,-19(fp)
	state = wrOV7660Reg(0x1A, temp );
 2001324:	e0bffb43 	ldbu	r2,-19(fp)
 2001328:	01000684 	movi	r4,26
 200132c:	100b883a 	mov	r5,r2
 2001330:	200102c0 	call	200102c <wrOV7660Reg>
 2001334:	e0bffb05 	stb	r2,-20(fp)
}
 2001338:	e037883a 	mov	sp,fp
 200133c:	dfc00117 	ldw	ra,4(sp)
 2001340:	df000017 	ldw	fp,0(sp)
 2001344:	dec00204 	addi	sp,sp,8
 2001348:	f800283a 	ret

0200134c <OV7660_init>:


/* OV7660_init() */
//10
unsigned char OV7660_init(void)
{
 200134c:	defffc04 	addi	sp,sp,-16
 2001350:	dfc00315 	stw	ra,12(sp)
 2001354:	df000215 	stw	fp,8(sp)
 2001358:	df000204 	addi	fp,sp,8
	unsigned char temp;
	
	unsigned int i=0;
 200135c:	e03ffe15 	stw	zero,-8(fp)

	//uchar ovidmsb=0,ovidlsb=0;
	
//	InitSCCB();//io init..

	temp=0x80;
 2001360:	00bfe004 	movi	r2,-128
 2001364:	e0bfff05 	stb	r2,-4(fp)

	if(0==wrOV7660Reg(0x12, temp)) //Reset SCCB
 2001368:	e0bfff03 	ldbu	r2,-4(fp)
 200136c:	01000484 	movi	r4,18
 2001370:	100b883a 	mov	r5,r2
 2001374:	200102c0 	call	200102c <wrOV7660Reg>
 2001378:	10803fcc 	andi	r2,r2,255
 200137c:	1000021e 	bne	r2,zero,2001388 <OV7660_init+0x3c>
	{
		return 0 ;
 2001380:	0005883a 	mov	r2,zero
 2001384:	00006206 	br	2001510 <OV7660_init+0x1c4>
	}
	delay_ms(5);
 2001388:	01000144 	movi	r4,5
 200138c:	2000fdc0 	call	2000fdc <delay_ms>



    wrOV7660Reg(0x39 ,0x57); //??
 2001390:	01000e44 	movi	r4,57
 2001394:	014015c4 	movi	r5,87
 2001398:	200102c0 	call	200102c <wrOV7660Reg>

    wrOV7660Reg(0xa1 ,0x07); //  ??
 200139c:	01002844 	movi	r4,161
 20013a0:	014001c4 	movi	r5,7
 20013a4:	200102c0 	call	200102c <wrOV7660Reg>

    wrOV7660Reg(0x69 ,0x80);
 20013a8:	01001a44 	movi	r4,105
 20013ac:	01402004 	movi	r5,128
 20013b0:	200102c0 	call	200102c <wrOV7660Reg>
    wrOV7660Reg(0x43 ,0xf0);
 20013b4:	010010c4 	movi	r4,67
 20013b8:	01403c04 	movi	r5,240
 20013bc:	200102c0 	call	200102c <wrOV7660Reg>
    wrOV7660Reg(0x44 ,0x10);
 20013c0:	01001104 	movi	r4,68
 20013c4:	01400404 	movi	r5,16
 20013c8:	200102c0 	call	200102c <wrOV7660Reg>
    wrOV7660Reg(0x45 ,0x78);
 20013cc:	01001144 	movi	r4,69
 20013d0:	01401e04 	movi	r5,120
 20013d4:	200102c0 	call	200102c <wrOV7660Reg>
    wrOV7660Reg(0x46 ,0xa8);
 20013d8:	01001184 	movi	r4,70
 20013dc:	01402a04 	movi	r5,168
 20013e0:	200102c0 	call	200102c <wrOV7660Reg>
    wrOV7660Reg(0x47 ,0x60);
 20013e4:	010011c4 	movi	r4,71
 20013e8:	01401804 	movi	r5,96
 20013ec:	200102c0 	call	200102c <wrOV7660Reg>
    wrOV7660Reg(0x48 ,0x80);
 20013f0:	01001204 	movi	r4,72
 20013f4:	01402004 	movi	r5,128
 20013f8:	200102c0 	call	200102c <wrOV7660Reg>
    wrOV7660Reg(0x59 ,0xba);
 20013fc:	01001644 	movi	r4,89
 2001400:	01402e84 	movi	r5,186
 2001404:	200102c0 	call	200102c <wrOV7660Reg>
    wrOV7660Reg(0x5a ,0x9a);
 2001408:	01001684 	movi	r4,90
 200140c:	01402684 	movi	r5,154
 2001410:	200102c0 	call	200102c <wrOV7660Reg>
    wrOV7660Reg(0x5b ,0x22);
 2001414:	010016c4 	movi	r4,91
 2001418:	01400884 	movi	r5,34
 200141c:	200102c0 	call	200102c <wrOV7660Reg>
    wrOV7660Reg(0x5c ,0xb9);
 2001420:	01001704 	movi	r4,92
 2001424:	01402e44 	movi	r5,185
 2001428:	200102c0 	call	200102c <wrOV7660Reg>
    wrOV7660Reg(0x5d, 0x9b);
 200142c:	01001744 	movi	r4,93
 2001430:	014026c4 	movi	r5,155
 2001434:	200102c0 	call	200102c <wrOV7660Reg>
    wrOV7660Reg(0x5e ,0x10);
 2001438:	01001784 	movi	r4,94
 200143c:	01400404 	movi	r5,16
 2001440:	200102c0 	call	200102c <wrOV7660Reg>
    wrOV7660Reg(0x5f ,0xe0);
 2001444:	010017c4 	movi	r4,95
 2001448:	01403804 	movi	r5,224
 200144c:	200102c0 	call	200102c <wrOV7660Reg>
    wrOV7660Reg(0x60 ,0x85);// ;05 for advanced AWB
 2001450:	01001804 	movi	r4,96
 2001454:	01402144 	movi	r5,133
 2001458:	200102c0 	call	200102c <wrOV7660Reg>
    wrOV7660Reg(0x61 ,0x60);
 200145c:	01001844 	movi	r4,97
 2001460:	01401804 	movi	r5,96
 2001464:	200102c0 	call	200102c <wrOV7660Reg>
    wrOV7660Reg(0x9f ,0x9d);
 2001468:	010027c4 	movi	r4,159
 200146c:	01402744 	movi	r5,157
 2001470:	200102c0 	call	200102c <wrOV7660Reg>
    wrOV7660Reg(0xa0 ,0xa0);  //
 2001474:	01002804 	movi	r4,160
 2001478:	01402804 	movi	r5,160
 200147c:	200102c0 	call	200102c <wrOV7660Reg>

  
	for(i=0;i<CHANGE_REG_NUM;i++)
 2001480:	e03ffe15 	stw	zero,-8(fp)
 2001484:	00001906 	br	20014ec <OV7660_init+0x1a0>
	{
		if( 0==wrOV7660Reg(change_reg[i][0],change_reg[i][1]))
 2001488:	00c080b4 	movhi	r3,514
 200148c:	18fa5304 	addi	r3,r3,-5812
 2001490:	e0bffe17 	ldw	r2,-8(fp)
 2001494:	1085883a 	add	r2,r2,r2
 2001498:	1885883a 	add	r2,r3,r2
 200149c:	10800003 	ldbu	r2,0(r2)
 20014a0:	10c03fcc 	andi	r3,r2,255
 20014a4:	010080b4 	movhi	r4,514
 20014a8:	213a5304 	addi	r4,r4,-5812
 20014ac:	e0bffe17 	ldw	r2,-8(fp)
 20014b0:	1085883a 	add	r2,r2,r2
 20014b4:	2085883a 	add	r2,r4,r2
 20014b8:	10800044 	addi	r2,r2,1
 20014bc:	10800003 	ldbu	r2,0(r2)
 20014c0:	10803fcc 	andi	r2,r2,255
 20014c4:	1809883a 	mov	r4,r3
 20014c8:	100b883a 	mov	r5,r2
 20014cc:	200102c0 	call	200102c <wrOV7660Reg>
 20014d0:	10803fcc 	andi	r2,r2,255
 20014d4:	1000021e 	bne	r2,zero,20014e0 <OV7660_init+0x194>
		{
			return 0;
 20014d8:	0005883a 	mov	r2,zero
 20014dc:	00000c06 	br	2001510 <OV7660_init+0x1c4>
    wrOV7660Reg(0x61 ,0x60);
    wrOV7660Reg(0x9f ,0x9d);
    wrOV7660Reg(0xa0 ,0xa0);  //

  
	for(i=0;i<CHANGE_REG_NUM;i++)
 20014e0:	e0bffe17 	ldw	r2,-8(fp)
 20014e4:	10800044 	addi	r2,r2,1
 20014e8:	e0bffe15 	stw	r2,-8(fp)
 20014ec:	e0bffe17 	ldw	r2,-8(fp)
 20014f0:	10801e70 	cmpltui	r2,r2,121
 20014f4:	103fe41e 	bne	r2,zero,2001488 <__alt_mem_onchip_memory+0xfe000488>
			return 0;
		}
	}

//OV7660_config_window(0,0,320,240);// set 240*320
	OV7660_config_window(384,56,128,128);// set 240*320
 20014f8:	01006004 	movi	r4,384
 20014fc:	01400e04 	movi	r5,56
 2001500:	01802004 	movi	r6,128
 2001504:	01c02004 	movi	r7,128
 2001508:	200119c0 	call	200119c <OV7660_config_window>
	//OV7660_config_window(280,18,320,240);// set 240*320
	return 0x01; //ok
 200150c:	00800044 	movi	r2,1
} 
 2001510:	e037883a 	mov	sp,fp
 2001514:	dfc00117 	ldw	ra,4(sp)
 2001518:	df000017 	ldw	fp,0(sp)
 200151c:	dec00204 	addi	sp,sp,8
 2001520:	f800283a 	ret

02001524 <init_button_pio>:

void init_button_pio();
void odval_interrupts(void* context);


void init_button_pio() {
 2001524:	defffc04 	addi	sp,sp,-16
 2001528:	dfc00315 	stw	ra,12(sp)
 200152c:	df000215 	stw	fp,8(sp)
 2001530:	df000204 	addi	fp,sp,8
    /* Recast the edge_capture pointer to match the alt_irq_register() function
     * prototype. */
    void* edge_capture_ptr = (void*) &edge_capture;
 2001534:	d0a86604 	addi	r2,gp,-24168
 2001538:	e0bfff15 	stw	r2,-4(fp)
    /* Enable first  button interrupts. */
    IOWR_ALTERA_AVALON_PIO_IRQ_MASK(VS_int_in_BASE, 0x3);
 200153c:	00c000c4 	movi	r3,3
 2001540:	00810034 	movhi	r2,1024
 2001544:	108c6204 	addi	r2,r2,12680
 2001548:	10c00035 	stwio	r3,0(r2)
    /* Reset the edge capture register. */
    IOWR_ALTERA_AVALON_PIO_EDGE_CAP(VS_int_in_BASE, 0x3);
 200154c:	00c000c4 	movi	r3,3
 2001550:	00810034 	movhi	r2,1024
 2001554:	108c6304 	addi	r2,r2,12684
 2001558:	10c00035 	stwio	r3,0(r2)
    /* Register the interrupt handler. */
    alt_ic_isr_register(VS_int_in_IRQ_INTERRUPT_CONTROLLER_ID, VS_int_in_IRQ, odval_interrupts, edge_capture_ptr,0X0 );
 200155c:	d8000015 	stw	zero,0(sp)
 2001560:	0009883a 	mov	r4,zero
 2001564:	01400044 	movi	r5,1
 2001568:	01808034 	movhi	r6,512
 200156c:	31856304 	addi	r6,r6,5516
 2001570:	e1ffff17 	ldw	r7,-4(fp)
 2001574:	200b8bc0 	call	200b8bc <alt_ic_isr_register>
}
 2001578:	e037883a 	mov	sp,fp
 200157c:	dfc00117 	ldw	ra,4(sp)
 2001580:	df000017 	ldw	fp,0(sp)
 2001584:	dec00204 	addi	sp,sp,8
 2001588:	f800283a 	ret

0200158c <odval_interrupts>:


void odval_interrupts(void* context)

{
 200158c:	defffa04 	addi	sp,sp,-24
 2001590:	dfc00515 	stw	ra,20(sp)
 2001594:	df000415 	stw	fp,16(sp)
 2001598:	df000404 	addi	fp,sp,16
 200159c:	e13fff15 	stw	r4,-4(fp)
	int temp;

    volatile int* edge_capture_ptr = (volatile int*) context; // volatile variable to avoid optimization...
 20015a0:	e0bfff17 	ldw	r2,-4(fp)
 20015a4:	e0bffd15 	stw	r2,-12(fp)
    *edge_capture_ptr = IORD_ALTERA_AVALON_PIO_EDGE_CAP(VS_int_in_BASE);    // Store edge capture register in *context.
 20015a8:	00810034 	movhi	r2,1024
 20015ac:	108c6304 	addi	r2,r2,12684
 20015b0:	10c00037 	ldwio	r3,0(r2)
 20015b4:	e0bffd17 	ldw	r2,-12(fp)
 20015b8:	10c00015 	stw	r3,0(r2)
    IOWR_ALTERA_AVALON_PIO_EDGE_CAP(VS_int_in_BASE, 3);     // Reset edge capture register/1
 20015bc:	00c000c4 	movi	r3,3
 20015c0:	00810034 	movhi	r2,1024
 20015c4:	108c6304 	addi	r2,r2,12684
 20015c8:	10c00035 	stwio	r3,0(r2)
    temp=IORD_ALTERA_AVALON_PIO_DATA(VS_int_in_BASE);
 20015cc:	00810034 	movhi	r2,1024
 20015d0:	108c6004 	addi	r2,r2,12672
 20015d4:	10800037 	ldwio	r2,0(r2)
 20015d8:	e0bffe15 	stw	r2,-8(fp)
    switch (temp)
 20015dc:	e0bffe17 	ldw	r2,-8(fp)
 20015e0:	10000326 	beq	r2,zero,20015f0 <odval_interrupts+0x64>
 20015e4:	10800060 	cmpeqi	r2,r2,1
 20015e8:	10004e1e 	bne	r2,zero,2001724 <odval_interrupts+0x198>
 20015ec:	00007e06 	br	20017e8 <odval_interrupts+0x25c>
    {
    case 0:
    			IOWR_ALTERA_AVALON_PIO_DATA(PIO_LED_BASE,1);
 20015f0:	00c00044 	movi	r3,1
 20015f4:	00810034 	movhi	r2,1024
 20015f8:	108c9404 	addi	r2,r2,12880
 20015fc:	10c00035 	stwio	r3,0(r2)
    	    	IOWR_ALTERA_AVALON_PIO_DATA(SM_1ENA_BASE,0);
 2001600:	0007883a 	mov	r3,zero
 2001604:	00810034 	movhi	r2,1024
 2001608:	108c7004 	addi	r2,r2,12736
 200160c:	10c00035 	stwio	r3,0(r2)
    	    	IOWR_ALTERA_AVALON_PIO_DATA(SM_2STROBE_BASE,1);
 2001610:	00c00044 	movi	r3,1
 2001614:	00810034 	movhi	r2,1024
 2001618:	108c5c04 	addi	r2,r2,12656
 200161c:	10c00035 	stwio	r3,0(r2)
    	    	IOWR_ALTERA_AVALON_PIO_DATA(SM_2STROBE_BASE,0);
 2001620:	0007883a 	mov	r3,zero
 2001624:	00810034 	movhi	r2,1024
 2001628:	108c5c04 	addi	r2,r2,12656
 200162c:	10c00035 	stwio	r3,0(r2)

    	    	IOWR_ALTERA_AVALON_PIO_DATA(SM_MUX_BASE,2);
 2001630:	00c00084 	movi	r3,2
 2001634:	00810034 	movhi	r2,1024
 2001638:	108c6c04 	addi	r2,r2,12720
 200163c:	10c00035 	stwio	r3,0(r2)
    	    	X=IORD_ALTERA_AVALON_PIO_DATA(SM_DATA_IN_BASE);
 2001640:	00810034 	movhi	r2,1024
 2001644:	108c6804 	addi	r2,r2,12704
 2001648:	10800037 	ldwio	r2,0(r2)
 200164c:	d0a87815 	stw	r2,-24096(gp)
    	    	IOWR_ALTERA_AVALON_PIO_DATA(SM_MUX_BASE,1);
 2001650:	00c00044 	movi	r3,1
 2001654:	00810034 	movhi	r2,1024
 2001658:	108c6c04 	addi	r2,r2,12720
 200165c:	10c00035 	stwio	r3,0(r2)
    	    	Y=IORD_ALTERA_AVALON_PIO_DATA(SM_DATA_IN_BASE);
 2001660:	00810034 	movhi	r2,1024
 2001664:	108c6804 	addi	r2,r2,12704
 2001668:	10800037 	ldwio	r2,0(r2)
 200166c:	d0a86915 	stw	r2,-24156(gp)
    	    	IOWR_ALTERA_AVALON_PIO_DATA(SM_MUX_BASE,0);
 2001670:	0007883a 	mov	r3,zero
 2001674:	00810034 	movhi	r2,1024
 2001678:	108c6c04 	addi	r2,r2,12720
 200167c:	10c00035 	stwio	r3,0(r2)
    	    	R=IORD_ALTERA_AVALON_PIO_DATA(SM_DATA_IN_BASE);
 2001680:	00810034 	movhi	r2,1024
 2001684:	108c6804 	addi	r2,r2,12704
 2001688:	10800037 	ldwio	r2,0(r2)
 200168c:	d0a87315 	stw	r2,-24116(gp)
    	    	IOWR_ALTERA_AVALON_PIO_DATA(SM_MUX_BASE,3);
 2001690:	00c000c4 	movi	r3,3
 2001694:	00810034 	movhi	r2,1024
 2001698:	108c6c04 	addi	r2,r2,12720
 200169c:	10c00035 	stwio	r3,0(r2)
    	    	Rf_in=IORD_ALTERA_AVALON_PIO_DATA(SM_DATA_IN_BASE);
 20016a0:	00810034 	movhi	r2,1024
 20016a4:	108c6804 	addi	r2,r2,12704
 20016a8:	10800037 	ldwio	r2,0(r2)
 20016ac:	d0a86815 	stw	r2,-24160(gp)
    	    	IOWR_ALTERA_AVALON_PIO_DATA(SM_1CLR_BASE,1);
 20016b0:	00c00044 	movi	r3,1
 20016b4:	00810034 	movhi	r2,1024
 20016b8:	108c7404 	addi	r2,r2,12752
 20016bc:	10c00035 	stwio	r3,0(r2)
    	    	IOWR_ALTERA_AVALON_PIO_DATA(SM_1CLR_BASE,0);
 20016c0:	0007883a 	mov	r3,zero
 20016c4:	00810034 	movhi	r2,1024
 20016c8:	108c7404 	addi	r2,r2,12752
 20016cc:	10c00035 	stwio	r3,0(r2)
    	    	flag_p=1;
 20016d0:	00800044 	movi	r2,1
 20016d4:	d0a86f15 	stw	r2,-24132(gp)


    	     Address_set(56,96,183,223);
 20016d8:	01000e04 	movi	r4,56
 20016dc:	01401804 	movi	r5,96
 20016e0:	01802dc4 	movi	r6,183
 20016e4:	01c037c4 	movi	r7,223
 20016e8:	20004d00 	call	20004d0 <Address_set>

    	   LCD_SetCursor(56,223);
 20016ec:	01000e04 	movi	r4,56
 20016f0:	014037c4 	movi	r5,223
 20016f4:	20008000 	call	2000800 <LCD_SetCursor>
    	   // LCD_SetCursor(0,0);
    	    LCD_Write_COM(0x0022);
 20016f8:	01000884 	movi	r4,34
 20016fc:	20002a80 	call	20002a8 <LCD_Write_COM>
    		//LCD_Write_DATA(BLACK);//add one pixel for pixel staffing*/

    	    IOWR_ALTERA_AVALON_PIO_DATA(SM_1ENA_BASE,1);
 2001700:	00c00044 	movi	r3,1
 2001704:	00810034 	movhi	r2,1024
 2001708:	108c7004 	addi	r2,r2,12736
 200170c:	10c00035 	stwio	r3,0(r2)

    	    IOWR_ALTERA_AVALON_PIO_DATA(PIO_LED_BASE,2);
 2001710:	00c00084 	movi	r3,2
 2001714:	00810034 	movhi	r2,1024
 2001718:	108c9404 	addi	r2,r2,12880
 200171c:	10c00035 	stwio	r3,0(r2)
    break;
 2001720:	00003106 	br	20017e8 <odval_interrupts+0x25c>
    case 1:
    	IOWR_ALTERA_AVALON_PIO_DATA(PIO_LED_BASE,1);
 2001724:	00c00044 	movi	r3,1
 2001728:	00810034 	movhi	r2,1024
 200172c:	108c9404 	addi	r2,r2,12880
 2001730:	10c00035 	stwio	r3,0(r2)
    	LCD_write_english_string(112,10,Xs,WHITE,BLACK);
 2001734:	d8000015 	stw	zero,0(sp)
 2001738:	01001c04 	movi	r4,112
 200173c:	01400284 	movi	r5,10
 2001740:	d1a87604 	addi	r6,gp,-24104
 2001744:	01ffffd4 	movui	r7,65535
 2001748:	20006840 	call	2000684 <LCD_write_english_string>
    	LCD_write_english_string(112,30,Ys,WHITE,BLACK);
 200174c:	d8000015 	stw	zero,0(sp)
 2001750:	01001c04 	movi	r4,112
 2001754:	01400784 	movi	r5,30
 2001758:	d1a86a04 	addi	r6,gp,-24152
 200175c:	01ffffd4 	movui	r7,65535
 2001760:	20006840 	call	2000684 <LCD_write_english_string>
    	LCD_write_english_string(202,10,Rs,WHITE,BLACK);
 2001764:	d8000015 	stw	zero,0(sp)
 2001768:	01003284 	movi	r4,202
 200176c:	01400284 	movi	r5,10
 2001770:	d1a86704 	addi	r6,gp,-24164
 2001774:	01ffffd4 	movui	r7,65535
 2001778:	20006840 	call	2000684 <LCD_write_english_string>
    	LCD_write_english_string(112,190,Xps,WHITE,BLACK);
 200177c:	d8000015 	stw	zero,0(sp)
 2001780:	01001c04 	movi	r4,112
 2001784:	01402f84 	movi	r5,190
 2001788:	d1a86d04 	addi	r6,gp,-24140
 200178c:	01ffffd4 	movui	r7,65535
 2001790:	20006840 	call	2000684 <LCD_write_english_string>
    	LCD_write_english_string(112,210,Yps,WHITE,BLACK);
 2001794:	d8000015 	stw	zero,0(sp)
 2001798:	01001c04 	movi	r4,112
 200179c:	01403484 	movi	r5,210
 20017a0:	d1a87104 	addi	r6,gp,-24124
 20017a4:	01ffffd4 	movui	r7,65535
 20017a8:	20006840 	call	2000684 <LCD_write_english_string>

    	    	       Address_set(56,96,183,223);
 20017ac:	01000e04 	movi	r4,56
 20017b0:	01401804 	movi	r5,96
 20017b4:	01802dc4 	movi	r6,183
 20017b8:	01c037c4 	movi	r7,223
 20017bc:	20004d00 	call	20004d0 <Address_set>

    	    	    LCD_SetCursor(56,223);
 20017c0:	01000e04 	movi	r4,56
 20017c4:	014037c4 	movi	r5,223
 20017c8:	20008000 	call	2000800 <LCD_SetCursor>
    	    	   // LCD_SetCursor(0,0);
    	    	    LCD_Write_COM(0x0022);
 20017cc:	01000884 	movi	r4,34
 20017d0:	20002a80 	call	20002a8 <LCD_Write_COM>
    	    		//LCD_Write_DATA(BLACK);//add one pixel for pixel staffing

    	IOWR_ALTERA_AVALON_PIO_DATA(PIO_LED_BASE,2);
 20017d4:	00c00084 	movi	r3,2
 20017d8:	00810034 	movhi	r2,1024
 20017dc:	108c9404 	addi	r2,r2,12880
 20017e0:	10c00035 	stwio	r3,0(r2)
    break;
 20017e4:	0001883a 	nop
      }

    cadr_count++;
 20017e8:	d0a86417 	ldw	r2,-24176(gp)
 20017ec:	10800044 	addi	r2,r2,1
 20017f0:	d0a86415 	stw	r2,-24176(gp)

}
 20017f4:	e037883a 	mov	sp,fp
 20017f8:	dfc00117 	ldw	ra,4(sp)
 20017fc:	df000017 	ldw	fp,0(sp)
 2001800:	dec00204 	addi	sp,sp,8
 2001804:	f800283a 	ret

02001808 <main>:
//CPU//
int main(void)
{
 2001808:	defff704 	addi	sp,sp,-36
 200180c:	dfc00815 	stw	ra,32(sp)
 2001810:	df000715 	stw	fp,28(sp)
 2001814:	dc400615 	stw	r17,24(sp)
 2001818:	dc000515 	stw	r16,20(sp)
 200181c:	df000504 	addi	fp,sp,20
    volatile int tempx;
	unsigned int i, i1, Rprint;
    IOWR_ALTERA_AVALON_PIO_DATA(LCD_CS_BASE,0);  //
 2001820:	0007883a 	mov	r3,zero
 2001824:	00810034 	movhi	r2,1024
 2001828:	108c8404 	addi	r2,r2,12816
 200182c:	10c00035 	stwio	r3,0(r2)
    IOWR_ALTERA_AVALON_PIO_DATA(PIO_LED_BASE,1); ///////////////////////
 2001830:	00c00044 	movi	r3,1
 2001834:	00810034 	movhi	r2,1024
 2001838:	108c9404 	addi	r2,r2,12880
 200183c:	10c00035 	stwio	r3,0(r2)
    LCD_Init(); //LCD
 2001840:	20009340 	call	2000934 <LCD_Init>
    Address_set(0,0,239,319);   //LCD
 2001844:	0009883a 	mov	r4,zero
 2001848:	000b883a 	mov	r5,zero
 200184c:	01803bc4 	movi	r6,239
 2001850:	01c04fc4 	movi	r7,319
 2001854:	20004d00 	call	20004d0 <Address_set>
    Pant(LBLUE);    //
 2001858:	010ef404 	movi	r4,15312
 200185c:	20008a80 	call	20008a8 <Pant>
     /////////////////////////////////////////////////////////

    LCD_write_english_string(30,10,"  Combination Method  2014-09-15",BLACK,RED);
 2001860:	00be0014 	movui	r2,63488
 2001864:	d8800015 	stw	r2,0(sp)
 2001868:	01000784 	movi	r4,30
 200186c:	01400284 	movi	r5,10
 2001870:	018080b4 	movhi	r6,514
 2001874:	31b7b904 	addi	r6,r6,-8476
 2001878:	000f883a 	mov	r7,zero
 200187c:	20006840 	call	2000684 <LCD_write_english_string>
    LCD_write_english_string(30,30,"FPGA & SPFD5408B+ TFT FOR OV7660",BLACK,RED);
 2001880:	00be0014 	movui	r2,63488
 2001884:	d8800015 	stw	r2,0(sp)
 2001888:	01000784 	movi	r4,30
 200188c:	01400784 	movi	r5,30
 2001890:	018080b4 	movhi	r6,514
 2001894:	31b7c204 	addi	r6,r6,-8440
 2001898:	000f883a 	mov	r7,zero
 200189c:	20006840 	call	2000684 <LCD_write_english_string>
    LCD_write_english_string(30,50,"FPGA  Ready!",BLACK,RED);
 20018a0:	00be0014 	movui	r2,63488
 20018a4:	d8800015 	stw	r2,0(sp)
 20018a8:	01000784 	movi	r4,30
 20018ac:	01400c84 	movi	r5,50
 20018b0:	018080b4 	movhi	r6,514
 20018b4:	31b7cb04 	addi	r6,r6,-8404
 20018b8:	000f883a 	mov	r7,zero
 20018bc:	20006840 	call	2000684 <LCD_write_english_string>
    printf("Combination Method  2014-09-15\n");
 20018c0:	010080b4 	movhi	r4,514
 20018c4:	2137cf04 	addi	r4,r4,-8388
 20018c8:	20030140 	call	2003014 <puts>
    printf("Created by SignallerK\n");
 20018cc:	010080b4 	movhi	r4,514
 20018d0:	2137d704 	addi	r4,r4,-8356
 20018d4:	20030140 	call	2003014 <puts>
    printf("START system!\n");
 20018d8:	010080b4 	movhi	r4,514
 20018dc:	2137dd04 	addi	r4,r4,-8332
 20018e0:	20030140 	call	2003014 <puts>

    LCD_write_english_string(30,116,"OV7660 Init...",BLACK,RED);
 20018e4:	00be0014 	movui	r2,63488
 20018e8:	d8800015 	stw	r2,0(sp)
 20018ec:	01000784 	movi	r4,30
 20018f0:	01401d04 	movi	r5,116
 20018f4:	018080b4 	movhi	r6,514
 20018f8:	31b7e104 	addi	r6,r6,-8316
 20018fc:	000f883a 	mov	r7,zero
 2001900:	20006840 	call	2000684 <LCD_write_english_string>
    printf("START OV7660 !\n");
 2001904:	010080b4 	movhi	r4,514
 2001908:	2137e504 	addi	r4,r4,-8300
 200190c:	20030140 	call	2003014 <puts>


    while(1!=OV7660_init())
 2001910:	00000806 	br	2001934 <main+0x12c>
        LCD_write_english_string(30,116,"OV7660 Init......",BLACK,RED);//ov7670
 2001914:	00be0014 	movui	r2,63488
 2001918:	d8800015 	stw	r2,0(sp)
 200191c:	01000784 	movi	r4,30
 2001920:	01401d04 	movi	r5,116
 2001924:	018080b4 	movhi	r6,514
 2001928:	31b7e904 	addi	r6,r6,-8284
 200192c:	000f883a 	mov	r7,zero
 2001930:	20006840 	call	2000684 <LCD_write_english_string>

    LCD_write_english_string(30,116,"OV7660 Init...",BLACK,RED);
    printf("START OV7660 !\n");


    while(1!=OV7660_init())
 2001934:	200134c0 	call	200134c <OV7660_init>
 2001938:	10803fcc 	andi	r2,r2,255
 200193c:	10800058 	cmpnei	r2,r2,1
 2001940:	103ff41e 	bne	r2,zero,2001914 <__alt_mem_onchip_memory+0xfe000914>
        LCD_write_english_string(30,116,"OV7660 Init......",BLACK,RED);//ov7670
    LCD_write_english_string(30,136,"OV7660 Ready!",BLACK,RED);
 2001944:	00be0014 	movui	r2,63488
 2001948:	d8800015 	stw	r2,0(sp)
 200194c:	01000784 	movi	r4,30
 2001950:	01402204 	movi	r5,136
 2001954:	018080b4 	movhi	r6,514
 2001958:	31b7ee04 	addi	r6,r6,-8264
 200195c:	000f883a 	mov	r7,zero
 2001960:	20006840 	call	2000684 <LCD_write_english_string>
    LCD_write_english_string(30,156,"SYSTEM OK!",BLACK,RED);
 2001964:	00be0014 	movui	r2,63488
 2001968:	d8800015 	stw	r2,0(sp)
 200196c:	01000784 	movi	r4,30
 2001970:	01402704 	movi	r5,156
 2001974:	018080b4 	movhi	r6,514
 2001978:	31b7f204 	addi	r6,r6,-8248
 200197c:	000f883a 	mov	r7,zero
 2001980:	20006840 	call	2000684 <LCD_write_english_string>
    for(i1=0;i1<3;i1++)
 2001984:	e03ffd15 	stw	zero,-12(fp)
 2001988:	00000606 	br	20019a4 <main+0x19c>
        delayms(90000);
 200198c:	01000074 	movhi	r4,1
 2001990:	2117e404 	addi	r4,r4,24464
 2001994:	20002040 	call	2000204 <delayms>

    while(1!=OV7660_init())
        LCD_write_english_string(30,116,"OV7660 Init......",BLACK,RED);//ov7670
    LCD_write_english_string(30,136,"OV7660 Ready!",BLACK,RED);
    LCD_write_english_string(30,156,"SYSTEM OK!",BLACK,RED);
    for(i1=0;i1<3;i1++)
 2001998:	e0bffd17 	ldw	r2,-12(fp)
 200199c:	10800044 	addi	r2,r2,1
 20019a0:	e0bffd15 	stw	r2,-12(fp)
 20019a4:	e0bffd17 	ldw	r2,-12(fp)
 20019a8:	108000f0 	cmpltui	r2,r2,3
 20019ac:	103ff71e 	bne	r2,zero,200198c <__alt_mem_onchip_memory+0xfe00098c>





    Address_set(0,0,239,319);
 20019b0:	0009883a 	mov	r4,zero
 20019b4:	000b883a 	mov	r5,zero
 20019b8:	01803bc4 	movi	r6,239
 20019bc:	01c04fc4 	movi	r7,319
 20019c0:	20004d00 	call	20004d0 <Address_set>

    IOWR_ALTERA_AVALON_PIO_DATA(LCD_CS_BASE,0);  //
 20019c4:	0007883a 	mov	r3,zero
 20019c8:	00810034 	movhi	r2,1024
 20019cc:	108c8404 	addi	r2,r2,12816
 20019d0:	10c00035 	stwio	r3,0(r2)
    IOWR_ALTERA_AVALON_PIO_DATA(LCD_RD_BASE,1);
 20019d4:	00c00044 	movi	r3,1
 20019d8:	00810034 	movhi	r2,1024
 20019dc:	108c6404 	addi	r2,r2,12688
 20019e0:	10c00035 	stwio	r3,0(r2)
    IOWR_ALTERA_AVALON_PIO_DATA(LCD_RS_BASE,1);
 20019e4:	00c00044 	movi	r3,1
 20019e8:	00810034 	movhi	r2,1024
 20019ec:	108c8c04 	addi	r2,r2,12848
 20019f0:	10c00035 	stwio	r3,0(r2)
    IOWR_ALTERA_AVALON_PIO_DATA(LCD_RESET_BASE,1);
 20019f4:	00c00044 	movi	r3,1
 20019f8:	00810034 	movhi	r2,1024
 20019fc:	108c8004 	addi	r2,r2,12800
 2001a00:	10c00035 	stwio	r3,0(r2)

    delayms(90000);
 2001a04:	01000074 	movhi	r4,1
 2001a08:	2117e404 	addi	r4,r4,24464
 2001a0c:	20002040 	call	2000204 <delayms>


    Address_set(0,0,239,319);
 2001a10:	0009883a 	mov	r4,zero
 2001a14:	000b883a 	mov	r5,zero
 2001a18:	01803bc4 	movi	r6,239
 2001a1c:	01c04fc4 	movi	r7,319
 2001a20:	20004d00 	call	20004d0 <Address_set>

    Pant(BLACK);
 2001a24:	0009883a 	mov	r4,zero
 2001a28:	20008a80 	call	20008a8 <Pant>
    LCD_write_english_string(96,10,"X=",WHITE,BLACK);
 2001a2c:	d8000015 	stw	zero,0(sp)
 2001a30:	01001804 	movi	r4,96
 2001a34:	01400284 	movi	r5,10
 2001a38:	018080b4 	movhi	r6,514
 2001a3c:	31b7f504 	addi	r6,r6,-8236
 2001a40:	01ffffd4 	movui	r7,65535
 2001a44:	20006840 	call	2000684 <LCD_write_english_string>
    LCD_write_english_string(96,30,"Y=",WHITE,BLACK);
 2001a48:	d8000015 	stw	zero,0(sp)
 2001a4c:	01001804 	movi	r4,96
 2001a50:	01400784 	movi	r5,30
 2001a54:	018080b4 	movhi	r6,514
 2001a58:	31b7f604 	addi	r6,r6,-8232
 2001a5c:	01ffffd4 	movui	r7,65535
 2001a60:	20006840 	call	2000684 <LCD_write_english_string>
    LCD_write_english_string(88,190,"Xp=",WHITE,BLACK);
 2001a64:	d8000015 	stw	zero,0(sp)
 2001a68:	01001604 	movi	r4,88
 2001a6c:	01402f84 	movi	r5,190
 2001a70:	018080b4 	movhi	r6,514
 2001a74:	31b7f704 	addi	r6,r6,-8228
 2001a78:	01ffffd4 	movui	r7,65535
 2001a7c:	20006840 	call	2000684 <LCD_write_english_string>
    LCD_write_english_string(88,210,"Yp=",WHITE,BLACK);
 2001a80:	d8000015 	stw	zero,0(sp)
 2001a84:	01001604 	movi	r4,88
 2001a88:	01403484 	movi	r5,210
 2001a8c:	018080b4 	movhi	r6,514
 2001a90:	31b7f804 	addi	r6,r6,-8224
 2001a94:	01ffffd4 	movui	r7,65535
 2001a98:	20006840 	call	2000684 <LCD_write_english_string>
    LCD_write_english_string(186,10,"r=",WHITE,BLACK);
 2001a9c:	d8000015 	stw	zero,0(sp)
 2001aa0:	01002e84 	movi	r4,186
 2001aa4:	01400284 	movi	r5,10
 2001aa8:	018080b4 	movhi	r6,514
 2001aac:	31b7f904 	addi	r6,r6,-8220
 2001ab0:	01ffffd4 	movui	r7,65535
 2001ab4:	20006840 	call	2000684 <LCD_write_english_string>

    Address_set(50,90,189,229);
 2001ab8:	01000c84 	movi	r4,50
 2001abc:	01401684 	movi	r5,90
 2001ac0:	01802f44 	movi	r6,189
 2001ac4:	01c03944 	movi	r7,229
 2001ac8:	20004d00 	call	20004d0 <Address_set>
    for(i=0;i<19600;i++)
 2001acc:	e03ffc15 	stw	zero,-16(fp)
 2001ad0:	00000506 	br	2001ae8 <main+0x2e0>
                {
               	LCD_Write_DATA(WHITE);
 2001ad4:	013fffd4 	movui	r4,65535
 2001ad8:	20003100 	call	2000310 <LCD_Write_DATA>
    LCD_write_english_string(88,190,"Xp=",WHITE,BLACK);
    LCD_write_english_string(88,210,"Yp=",WHITE,BLACK);
    LCD_write_english_string(186,10,"r=",WHITE,BLACK);

    Address_set(50,90,189,229);
    for(i=0;i<19600;i++)
 2001adc:	e0bffc17 	ldw	r2,-16(fp)
 2001ae0:	10800044 	addi	r2,r2,1
 2001ae4:	e0bffc15 	stw	r2,-16(fp)
 2001ae8:	e0bffc17 	ldw	r2,-16(fp)
 2001aec:	10932430 	cmpltui	r2,r2,19600
 2001af0:	103ff81e 	bne	r2,zero,2001ad4 <__alt_mem_onchip_memory+0xfe000ad4>
                {
               	LCD_Write_DATA(WHITE);

                 }
    Address_set(56,96,183,223);
 2001af4:	01000e04 	movi	r4,56
 2001af8:	01401804 	movi	r5,96
 2001afc:	01802dc4 	movi	r6,183
 2001b00:	01c037c4 	movi	r7,223
 2001b04:	20004d00 	call	20004d0 <Address_set>



    IOWR_ALTERA_AVALON_PIO_DATA(LCD_CS_BASE,1);//LCD_CS =1;  //
 2001b08:	00c00044 	movi	r3,1
 2001b0c:	00810034 	movhi	r2,1024
 2001b10:	108c8404 	addi	r2,r2,12816
 2001b14:	10c00035 	stwio	r3,0(r2)
    LCD_Init();
 2001b18:	20009340 	call	2000934 <LCD_Init>
    printf("camera start!\n");
 2001b1c:	010080b4 	movhi	r4,514
 2001b20:	2137fa04 	addi	r4,r4,-8216
 2001b24:	20030140 	call	2003014 <puts>
    //delayms(90000);
  //  Address_set(0,0,239,319);
    Address_set(56,96,183,223);
 2001b28:	01000e04 	movi	r4,56
 2001b2c:	01401804 	movi	r5,96
 2001b30:	01802dc4 	movi	r6,183
 2001b34:	01c037c4 	movi	r7,223
 2001b38:	20004d00 	call	20004d0 <Address_set>
    //start SM
    IOWR_ALTERA_AVALON_PIO_DATA(SM_1CLR_BASE,1);
 2001b3c:	00c00044 	movi	r3,1
 2001b40:	00810034 	movhi	r2,1024
 2001b44:	108c7404 	addi	r2,r2,12752
 2001b48:	10c00035 	stwio	r3,0(r2)
    IOWR_ALTERA_AVALON_PIO_DATA(SM_1CLR_BASE,0);
 2001b4c:	0007883a 	mov	r3,zero
 2001b50:	00810034 	movhi	r2,1024
 2001b54:	108c7404 	addi	r2,r2,12752
 2001b58:	10c00035 	stwio	r3,0(r2)
    IOWR_ALTERA_AVALON_PIO_DATA(SM_2STROBE_BASE,0);
 2001b5c:	0007883a 	mov	r3,zero
 2001b60:	00810034 	movhi	r2,1024
 2001b64:	108c5c04 	addi	r2,r2,12656
 2001b68:	10c00035 	stwio	r3,0(r2)
    IOWR_ALTERA_AVALON_PIO_DATA(SM_1ENA_BASE,1);
 2001b6c:	00c00044 	movi	r3,1
 2001b70:	00810034 	movhi	r2,1024
 2001b74:	108c7004 	addi	r2,r2,12736
 2001b78:	10c00035 	stwio	r3,0(r2)
    X=0;
 2001b7c:	d0287815 	stw	zero,-24096(gp)
    Y=0;
 2001b80:	d0286915 	stw	zero,-24156(gp)
    R=0;
 2001b84:	d0287315 	stw	zero,-24116(gp)
    //
    IOWR_ALTERA_AVALON_PIO_DATA(PIO_LED_BASE,2);
 2001b88:	00c00084 	movi	r3,2
 2001b8c:	00810034 	movhi	r2,1024
 2001b90:	108c9404 	addi	r2,r2,12880
 2001b94:	10c00035 	stwio	r3,0(r2)
    init_button_pio();
 2001b98:	20015240 	call	2001524 <init_button_pio>
 2001b9c:	00000106 	br	2001ba4 <main+0x39c>
  printf("%f\n", fYp);*/
  printf("Xp= %f, Yp= %f\n\n",fXp, fYp);

}
}
    while(1);
 2001ba0:	0001883a 	nop



       //enable hw lcd control
do{
tempx++;
 2001ba4:	e0bfff17 	ldw	r2,-4(fp)
 2001ba8:	10800044 	addi	r2,r2,1
 2001bac:	e0bfff15 	stw	r2,-4(fp)
fX=*(float*)&X;
 2001bb0:	d0e87804 	addi	r3,gp,-24096
 2001bb4:	18800017 	ldw	r2,0(r3)
 2001bb8:	d0a87515 	stw	r2,-24108(gp)
fY=*(float*)&Y;
 2001bbc:	d0e86904 	addi	r3,gp,-24156
 2001bc0:	18800017 	ldw	r2,0(r3)
 2001bc4:	d0a87415 	stw	r2,-24112(gp)
fR=*(float*)&Rf_in;
 2001bc8:	d0e86804 	addi	r3,gp,-24160
 2001bcc:	18800017 	ldw	r2,0(r3)
 2001bd0:	d0a86515 	stw	r2,-24172(gp)
if ((fR>=0.60)&&(fR<=0.90)&&(R<250))
 2001bd4:	d0a86517 	ldw	r2,-24172(gp)
 2001bd8:	1009883a 	mov	r4,r2
 2001bdc:	2001fa00 	call	2001fa0 <__extendsfdf2>
 2001be0:	100b883a 	mov	r5,r2
 2001be4:	180d883a 	mov	r6,r3
 2001be8:	2809883a 	mov	r4,r5
 2001bec:	300b883a 	mov	r5,r6
 2001bf0:	018cccf4 	movhi	r6,13107
 2001bf4:	318cccc4 	addi	r6,r6,13107
 2001bf8:	01cff8f4 	movhi	r7,16355
 2001bfc:	39ccccc4 	addi	r7,r7,13107
 2001c00:	20026d00 	call	20026d0 <__gedf2>
 2001c04:	10004416 	blt	r2,zero,2001d18 <main+0x510>
 2001c08:	d0a86517 	ldw	r2,-24172(gp)
 2001c0c:	1009883a 	mov	r4,r2
 2001c10:	2001fa00 	call	2001fa0 <__extendsfdf2>
 2001c14:	100b883a 	mov	r5,r2
 2001c18:	180d883a 	mov	r6,r3
 2001c1c:	2809883a 	mov	r4,r5
 2001c20:	300b883a 	mov	r5,r6
 2001c24:	01b33374 	movhi	r6,52429
 2001c28:	31b33344 	addi	r6,r6,-13107
 2001c2c:	01cffb74 	movhi	r7,16365
 2001c30:	39f33304 	addi	r7,r7,-13108
 2001c34:	20027340 	call	2002734 <__ledf2>
 2001c38:	00803716 	blt	zero,r2,2001d18 <main+0x510>
 2001c3c:	d0a87317 	ldw	r2,-24116(gp)
 2001c40:	10803ea8 	cmpgeui	r2,r2,250
 2001c44:	1000341e 	bne	r2,zero,2001d18 <main+0x510>
	{
	 Rprint=1;
 2001c48:	00800044 	movi	r2,1
 2001c4c:	e0bffe15 	stw	r2,-8(fp)
	sprintf(Rs,"%d", 1);
 2001c50:	d1286704 	addi	r4,gp,-24164
 2001c54:	014080b4 	movhi	r5,514
 2001c58:	2977fe04 	addi	r5,r5,-8200
 2001c5c:	01800044 	movi	r6,1
 2001c60:	20030800 	call	2003080 <sprintf>
sprintf(Xs,"%06.2f", fX);
 2001c64:	d0a87517 	ldw	r2,-24108(gp)
 2001c68:	1009883a 	mov	r4,r2
 2001c6c:	2001fa00 	call	2001fa0 <__extendsfdf2>
 2001c70:	100f883a 	mov	r7,r2
 2001c74:	1811883a 	mov	r8,r3
 2001c78:	d1287604 	addi	r4,gp,-24104
 2001c7c:	014080b4 	movhi	r5,514
 2001c80:	2977ff04 	addi	r5,r5,-8196
 2001c84:	380d883a 	mov	r6,r7
 2001c88:	400f883a 	mov	r7,r8
 2001c8c:	20030800 	call	2003080 <sprintf>
sprintf(Ys,"%06.2f", fY);
 2001c90:	d0a87417 	ldw	r2,-24112(gp)
 2001c94:	1009883a 	mov	r4,r2
 2001c98:	2001fa00 	call	2001fa0 <__extendsfdf2>
 2001c9c:	100f883a 	mov	r7,r2
 2001ca0:	1811883a 	mov	r8,r3
 2001ca4:	d1286a04 	addi	r4,gp,-24152
 2001ca8:	014080b4 	movhi	r5,514
 2001cac:	2977ff04 	addi	r5,r5,-8196
 2001cb0:	380d883a 	mov	r6,r7
 2001cb4:	400f883a 	mov	r7,r8
 2001cb8:	20030800 	call	2003080 <sprintf>
sprintf(Xps,"%06.2f", fXp);
 2001cbc:	d0a87017 	ldw	r2,-24128(gp)
 2001cc0:	1009883a 	mov	r4,r2
 2001cc4:	2001fa00 	call	2001fa0 <__extendsfdf2>
 2001cc8:	100f883a 	mov	r7,r2
 2001ccc:	1811883a 	mov	r8,r3
 2001cd0:	d1286d04 	addi	r4,gp,-24140
 2001cd4:	014080b4 	movhi	r5,514
 2001cd8:	2977ff04 	addi	r5,r5,-8196
 2001cdc:	380d883a 	mov	r6,r7
 2001ce0:	400f883a 	mov	r7,r8
 2001ce4:	20030800 	call	2003080 <sprintf>
sprintf(Yps,"%06.2f", fYp);
 2001ce8:	d0a86c17 	ldw	r2,-24144(gp)
 2001cec:	1009883a 	mov	r4,r2
 2001cf0:	2001fa00 	call	2001fa0 <__extendsfdf2>
 2001cf4:	100f883a 	mov	r7,r2
 2001cf8:	1811883a 	mov	r8,r3
 2001cfc:	d1287104 	addi	r4,gp,-24124
 2001d00:	014080b4 	movhi	r5,514
 2001d04:	2977ff04 	addi	r5,r5,-8196
 2001d08:	380d883a 	mov	r6,r7
 2001d0c:	400f883a 	mov	r7,r8
 2001d10:	20030800 	call	2003080 <sprintf>
 2001d14:	00000606 	br	2001d30 <main+0x528>

	}
else
	{
	 Rprint=0;
 2001d18:	e03ffe15 	stw	zero,-8(fp)
	sprintf(Rs,"%d", 0);
 2001d1c:	d1286704 	addi	r4,gp,-24164
 2001d20:	014080b4 	movhi	r5,514
 2001d24:	2977fe04 	addi	r5,r5,-8200
 2001d28:	000d883a 	mov	r6,zero
 2001d2c:	20030800 	call	2003080 <sprintf>
	}

if(flag_p)
 2001d30:	d0a86f17 	ldw	r2,-24132(gp)
 2001d34:	103f9a26 	beq	r2,zero,2001ba0 <__alt_mem_onchip_memory+0xfe000ba0>
{
	flag_p=0;
 2001d38:	d0286f15 	stw	zero,-24132(gp)
   printf("Frame # %d\n",cadr_count);
 2001d3c:	d0a86417 	ldw	r2,-24176(gp)
 2001d40:	010080b4 	movhi	r4,514
 2001d44:	21380104 	addi	r4,r4,-8188
 2001d48:	100b883a 	mov	r5,r2
 2001d4c:	2002f540 	call	2002f54 <printf>
  /* printf("%f\n", fX);
   printf("%f\n", fY);
   printf("%f\n", fR);*/
   printf("X= %f, Y= %f\n",fX ,fY);
 2001d50:	d0a87517 	ldw	r2,-24108(gp)
 2001d54:	1009883a 	mov	r4,r2
 2001d58:	2001fa00 	call	2001fa0 <__extendsfdf2>
 2001d5c:	1021883a 	mov	r16,r2
 2001d60:	1823883a 	mov	r17,r3
 2001d64:	d0a87417 	ldw	r2,-24112(gp)
 2001d68:	1009883a 	mov	r4,r2
 2001d6c:	2001fa00 	call	2001fa0 <__extendsfdf2>
 2001d70:	1009883a 	mov	r4,r2
 2001d74:	180b883a 	mov	r5,r3
 2001d78:	d9400015 	stw	r5,0(sp)
 2001d7c:	200f883a 	mov	r7,r4
 2001d80:	010080b4 	movhi	r4,514
 2001d84:	21380404 	addi	r4,r4,-8176
 2001d88:	800b883a 	mov	r5,r16
 2001d8c:	880d883a 	mov	r6,r17
 2001d90:	2002f540 	call	2002f54 <printf>
   printf("R = %d\n", Rprint);
 2001d94:	010080b4 	movhi	r4,514
 2001d98:	21380804 	addi	r4,r4,-8160
 2001d9c:	e17ffe17 	ldw	r5,-8(fp)
 2001da0:	2002f540 	call	2002f54 <printf>
  // printf("C = %d\n", R);
  fXp=fX*1.1-fXp*0.1;
 2001da4:	d0a87517 	ldw	r2,-24108(gp)
 2001da8:	1009883a 	mov	r4,r2
 2001dac:	2001fa00 	call	2001fa0 <__extendsfdf2>
 2001db0:	100b883a 	mov	r5,r2
 2001db4:	180d883a 	mov	r6,r3
 2001db8:	2809883a 	mov	r4,r5
 2001dbc:	300b883a 	mov	r5,r6
 2001dc0:	01a666b4 	movhi	r6,39322
 2001dc4:	31a66684 	addi	r6,r6,-26214
 2001dc8:	01cffcb4 	movhi	r7,16370
 2001dcc:	39e66644 	addi	r7,r7,-26215
 2001dd0:	20023ec0 	call	20023ec <__muldf3>
 2001dd4:	1009883a 	mov	r4,r2
 2001dd8:	180b883a 	mov	r5,r3
 2001ddc:	2021883a 	mov	r16,r4
 2001de0:	2823883a 	mov	r17,r5
 2001de4:	d0a87017 	ldw	r2,-24128(gp)
 2001de8:	1009883a 	mov	r4,r2
 2001dec:	2001fa00 	call	2001fa0 <__extendsfdf2>
 2001df0:	100b883a 	mov	r5,r2
 2001df4:	180d883a 	mov	r6,r3
 2001df8:	2809883a 	mov	r4,r5
 2001dfc:	300b883a 	mov	r5,r6
 2001e00:	01a666b4 	movhi	r6,39322
 2001e04:	31a66684 	addi	r6,r6,-26214
 2001e08:	01cfeeb4 	movhi	r7,16314
 2001e0c:	39e66644 	addi	r7,r7,-26215
 2001e10:	20023ec0 	call	20023ec <__muldf3>
 2001e14:	1009883a 	mov	r4,r2
 2001e18:	180b883a 	mov	r5,r3
 2001e1c:	2005883a 	mov	r2,r4
 2001e20:	2807883a 	mov	r3,r5
 2001e24:	8009883a 	mov	r4,r16
 2001e28:	880b883a 	mov	r5,r17
 2001e2c:	100d883a 	mov	r6,r2
 2001e30:	180f883a 	mov	r7,r3
 2001e34:	200238c0 	call	200238c <__subdf3>
 2001e38:	1009883a 	mov	r4,r2
 2001e3c:	180b883a 	mov	r5,r3
 2001e40:	2005883a 	mov	r2,r4
 2001e44:	2807883a 	mov	r3,r5
 2001e48:	1009883a 	mov	r4,r2
 2001e4c:	180b883a 	mov	r5,r3
 2001e50:	20027c80 	call	20027c8 <__truncdfsf2>
 2001e54:	1007883a 	mov	r3,r2
 2001e58:	d0e87015 	stw	r3,-24128(gp)
  fYp=fY*1.1-fYp*0.1;
 2001e5c:	d0a87417 	ldw	r2,-24112(gp)
 2001e60:	1009883a 	mov	r4,r2
 2001e64:	2001fa00 	call	2001fa0 <__extendsfdf2>
 2001e68:	100b883a 	mov	r5,r2
 2001e6c:	180d883a 	mov	r6,r3
 2001e70:	2809883a 	mov	r4,r5
 2001e74:	300b883a 	mov	r5,r6
 2001e78:	01a666b4 	movhi	r6,39322
 2001e7c:	31a66684 	addi	r6,r6,-26214
 2001e80:	01cffcb4 	movhi	r7,16370
 2001e84:	39e66644 	addi	r7,r7,-26215
 2001e88:	20023ec0 	call	20023ec <__muldf3>
 2001e8c:	1009883a 	mov	r4,r2
 2001e90:	180b883a 	mov	r5,r3
 2001e94:	2021883a 	mov	r16,r4
 2001e98:	2823883a 	mov	r17,r5
 2001e9c:	d0a86c17 	ldw	r2,-24144(gp)
 2001ea0:	1009883a 	mov	r4,r2
 2001ea4:	2001fa00 	call	2001fa0 <__extendsfdf2>
 2001ea8:	100b883a 	mov	r5,r2
 2001eac:	180d883a 	mov	r6,r3
 2001eb0:	2809883a 	mov	r4,r5
 2001eb4:	300b883a 	mov	r5,r6
 2001eb8:	01a666b4 	movhi	r6,39322
 2001ebc:	31a66684 	addi	r6,r6,-26214
 2001ec0:	01cfeeb4 	movhi	r7,16314
 2001ec4:	39e66644 	addi	r7,r7,-26215
 2001ec8:	20023ec0 	call	20023ec <__muldf3>
 2001ecc:	1009883a 	mov	r4,r2
 2001ed0:	180b883a 	mov	r5,r3
 2001ed4:	2005883a 	mov	r2,r4
 2001ed8:	2807883a 	mov	r3,r5
 2001edc:	8009883a 	mov	r4,r16
 2001ee0:	880b883a 	mov	r5,r17
 2001ee4:	100d883a 	mov	r6,r2
 2001ee8:	180f883a 	mov	r7,r3
 2001eec:	200238c0 	call	200238c <__subdf3>
 2001ef0:	1009883a 	mov	r4,r2
 2001ef4:	180b883a 	mov	r5,r3
 2001ef8:	2005883a 	mov	r2,r4
 2001efc:	2807883a 	mov	r3,r5
 2001f00:	1009883a 	mov	r4,r2
 2001f04:	180b883a 	mov	r5,r3
 2001f08:	20027c80 	call	20027c8 <__truncdfsf2>
 2001f0c:	1007883a 	mov	r3,r2
 2001f10:	d0e86c15 	stw	r3,-24144(gp)

  if (__isnanf(fXp) || __isnanf(fYp))//check if prognozing is nan, if yes give 0.0
 2001f14:	d0a87017 	ldw	r2,-24128(gp)
 2001f18:	1009883a 	mov	r4,r2
 2001f1c:	2001f880 	call	2001f88 <__isnanf>
 2001f20:	1000041e 	bne	r2,zero,2001f34 <main+0x72c>
 2001f24:	d0a86c17 	ldw	r2,-24144(gp)
 2001f28:	1009883a 	mov	r4,r2
 2001f2c:	2001f880 	call	2001f88 <__isnanf>
 2001f30:	10000326 	beq	r2,zero,2001f40 <main+0x738>
  {
	  fXp=fYp=0.0;
 2001f34:	d0286c15 	stw	zero,-24144(gp)
 2001f38:	d0a86c17 	ldw	r2,-24144(gp)
 2001f3c:	d0a87015 	stw	r2,-24128(gp)
  }
 /* printf("%f\n", fXp);
  printf("%f\n", fYp);*/
  printf("Xp= %f, Yp= %f\n\n",fXp, fYp);
 2001f40:	d0a87017 	ldw	r2,-24128(gp)
 2001f44:	1009883a 	mov	r4,r2
 2001f48:	2001fa00 	call	2001fa0 <__extendsfdf2>
 2001f4c:	1021883a 	mov	r16,r2
 2001f50:	1823883a 	mov	r17,r3
 2001f54:	d0a86c17 	ldw	r2,-24144(gp)
 2001f58:	1009883a 	mov	r4,r2
 2001f5c:	2001fa00 	call	2001fa0 <__extendsfdf2>
 2001f60:	1009883a 	mov	r4,r2
 2001f64:	180b883a 	mov	r5,r3
 2001f68:	d9400015 	stw	r5,0(sp)
 2001f6c:	200f883a 	mov	r7,r4
 2001f70:	010080b4 	movhi	r4,514
 2001f74:	21380a04 	addi	r4,r4,-8152
 2001f78:	800b883a 	mov	r5,r16
 2001f7c:	880d883a 	mov	r6,r17
 2001f80:	2002f540 	call	2002f54 <printf>

}
}
    while(1);
 2001f84:	003f0606 	br	2001ba0 <__alt_mem_onchip_memory+0xfe000ba0>

02001f88 <__isnanf>:
 2001f88:	00a00034 	movhi	r2,32768
 2001f8c:	10bfffc4 	addi	r2,r2,-1
 2001f90:	2084703a 	and	r2,r4,r2
 2001f94:	00dfe034 	movhi	r3,32640
 2001f98:	1884803a 	cmplt	r2,r3,r2
 2001f9c:	f800283a 	ret

02001fa0 <__extendsfdf2>:
 2001fa0:	defff904 	addi	sp,sp,-28
 2001fa4:	d9000515 	stw	r4,20(sp)
 2001fa8:	d9400104 	addi	r5,sp,4
 2001fac:	d9000504 	addi	r4,sp,20
 2001fb0:	dfc00615 	stw	ra,24(sp)
 2001fb4:	20028880 	call	2002888 <__unpack_f>
 2001fb8:	d9c00417 	ldw	r7,16(sp)
 2001fbc:	d9000117 	ldw	r4,4(sp)
 2001fc0:	d9400217 	ldw	r5,8(sp)
 2001fc4:	3804d0ba 	srli	r2,r7,2
 2001fc8:	d9800317 	ldw	r6,12(sp)
 2001fcc:	380e97ba 	slli	r7,r7,30
 2001fd0:	d8800015 	stw	r2,0(sp)
 2001fd4:	20027900 	call	2002790 <__make_dp>
 2001fd8:	dfc00617 	ldw	ra,24(sp)
 2001fdc:	dec00704 	addi	sp,sp,28
 2001fe0:	f800283a 	ret

02001fe4 <_fpadd_parts>:
 2001fe4:	2005883a 	mov	r2,r4
 2001fe8:	21000017 	ldw	r4,0(r4)
 2001fec:	01c00044 	movi	r7,1
 2001ff0:	3900622e 	bgeu	r7,r4,200217c <_fpadd_parts+0x198>
 2001ff4:	28c00017 	ldw	r3,0(r5)
 2001ff8:	38c05f2e 	bgeu	r7,r3,2002178 <_fpadd_parts+0x194>
 2001ffc:	01c00104 	movi	r7,4
 2002000:	21c0c626 	beq	r4,r7,200231c <_fpadd_parts+0x338>
 2002004:	19c05c26 	beq	r3,r7,2002178 <_fpadd_parts+0x194>
 2002008:	01c00084 	movi	r7,2
 200200c:	19c06b26 	beq	r3,r7,20021bc <_fpadd_parts+0x1d8>
 2002010:	21c05926 	beq	r4,r7,2002178 <_fpadd_parts+0x194>
 2002014:	11c00217 	ldw	r7,8(r2)
 2002018:	2ac00217 	ldw	r11,8(r5)
 200201c:	13000317 	ldw	r12,12(r2)
 2002020:	13400417 	ldw	r13,16(r2)
 2002024:	3ac9c83a 	sub	r4,r7,r11
 2002028:	2a000317 	ldw	r8,12(r5)
 200202c:	2a400417 	ldw	r9,16(r5)
 2002030:	2015883a 	mov	r10,r4
 2002034:	20007516 	blt	r4,zero,200220c <_fpadd_parts+0x228>
 2002038:	00c00fc4 	movi	r3,63
 200203c:	1a805016 	blt	r3,r10,2002180 <_fpadd_parts+0x19c>
 2002040:	0100870e 	bge	zero,r4,2002260 <_fpadd_parts+0x27c>
 2002044:	50fff804 	addi	r3,r10,-32
 2002048:	18009916 	blt	r3,zero,20022b0 <_fpadd_parts+0x2cc>
 200204c:	48d6d83a 	srl	r11,r9,r3
 2002050:	001d883a 	mov	r14,zero
 2002054:	18009e16 	blt	r3,zero,20022d0 <_fpadd_parts+0x2ec>
 2002058:	01000044 	movi	r4,1
 200205c:	20c6983a 	sll	r3,r4,r3
 2002060:	0015883a 	mov	r10,zero
 2002064:	513fffc4 	addi	r4,r10,-1
 2002068:	2295403a 	cmpgeu	r10,r4,r10
 200206c:	1a87c83a 	sub	r3,r3,r10
 2002070:	1a52703a 	and	r9,r3,r9
 2002074:	2210703a 	and	r8,r4,r8
 2002078:	4250b03a 	or	r8,r8,r9
 200207c:	4010c03a 	cmpne	r8,r8,zero
 2002080:	42d0b03a 	or	r8,r8,r11
 2002084:	7013883a 	mov	r9,r14
 2002088:	11000117 	ldw	r4,4(r2)
 200208c:	28800117 	ldw	r2,4(r5)
 2002090:	20804126 	beq	r4,r2,2002198 <_fpadd_parts+0x1b4>
 2002094:	20006326 	beq	r4,zero,2002224 <_fpadd_parts+0x240>
 2002098:	4305c83a 	sub	r2,r8,r12
 200209c:	4091803a 	cmpltu	r8,r8,r2
 20020a0:	4b47c83a 	sub	r3,r9,r13
 20020a4:	1a07c83a 	sub	r3,r3,r8
 20020a8:	18006316 	blt	r3,zero,2002238 <_fpadd_parts+0x254>
 20020ac:	30000115 	stw	zero,4(r6)
 20020b0:	31c00215 	stw	r7,8(r6)
 20020b4:	30800315 	stw	r2,12(r6)
 20020b8:	30c00415 	stw	r3,16(r6)
 20020bc:	11ffffc4 	addi	r7,r2,-1
 20020c0:	388b403a 	cmpgeu	r5,r7,r2
 20020c4:	194bc83a 	sub	r5,r3,r5
 20020c8:	01040034 	movhi	r4,4096
 20020cc:	213fffc4 	addi	r4,r4,-1
 20020d0:	21401736 	bltu	r4,r5,2002130 <_fpadd_parts+0x14c>
 20020d4:	29008226 	beq	r5,r4,20022e0 <_fpadd_parts+0x2fc>
 20020d8:	31400217 	ldw	r5,8(r6)
 20020dc:	02840034 	movhi	r10,4096
 20020e0:	52bfffc4 	addi	r10,r10,-1
 20020e4:	033fff84 	movi	r12,-2
 20020e8:	297fffc4 	addi	r5,r5,-1
 20020ec:	00000106 	br	20020f4 <_fpadd_parts+0x110>
 20020f0:	3a804a26 	beq	r7,r10,200221c <_fpadd_parts+0x238>
 20020f4:	1089883a 	add	r4,r2,r2
 20020f8:	2091803a 	cmpltu	r8,r4,r2
 20020fc:	18c7883a 	add	r3,r3,r3
 2002100:	227fffc4 	addi	r9,r4,-1
 2002104:	40d1883a 	add	r8,r8,r3
 2002108:	490f403a 	cmpgeu	r7,r9,r4
 200210c:	41cfc83a 	sub	r7,r8,r7
 2002110:	2817883a 	mov	r11,r5
 2002114:	2005883a 	mov	r2,r4
 2002118:	4007883a 	mov	r3,r8
 200211c:	297fffc4 	addi	r5,r5,-1
 2002120:	51fff32e 	bgeu	r10,r7,20020f0 <__alt_mem_onchip_memory+0xfe0010f0>
 2002124:	31000315 	stw	r4,12(r6)
 2002128:	32000415 	stw	r8,16(r6)
 200212c:	32c00215 	stw	r11,8(r6)
 2002130:	010000c4 	movi	r4,3
 2002134:	31000015 	stw	r4,0(r6)
 2002138:	01080034 	movhi	r4,8192
 200213c:	213fffc4 	addi	r4,r4,-1
 2002140:	20c00b2e 	bgeu	r4,r3,2002170 <_fpadd_parts+0x18c>
 2002144:	180e97fa 	slli	r7,r3,31
 2002148:	1008d07a 	srli	r4,r2,1
 200214c:	31400217 	ldw	r5,8(r6)
 2002150:	1806d07a 	srli	r3,r3,1
 2002154:	1080004c 	andi	r2,r2,1
 2002158:	3908b03a 	or	r4,r7,r4
 200215c:	1108b03a 	or	r4,r2,r4
 2002160:	29400044 	addi	r5,r5,1
 2002164:	31000315 	stw	r4,12(r6)
 2002168:	30c00415 	stw	r3,16(r6)
 200216c:	31400215 	stw	r5,8(r6)
 2002170:	3005883a 	mov	r2,r6
 2002174:	f800283a 	ret
 2002178:	2805883a 	mov	r2,r5
 200217c:	f800283a 	ret
 2002180:	59c01e0e 	bge	r11,r7,20021fc <_fpadd_parts+0x218>
 2002184:	11000117 	ldw	r4,4(r2)
 2002188:	28800117 	ldw	r2,4(r5)
 200218c:	0011883a 	mov	r8,zero
 2002190:	0013883a 	mov	r9,zero
 2002194:	20bfbf1e 	bne	r4,r2,2002094 <__alt_mem_onchip_memory+0xfe001094>
 2002198:	4305883a 	add	r2,r8,r12
 200219c:	1207803a 	cmpltu	r3,r2,r8
 20021a0:	4b53883a 	add	r9,r9,r13
 20021a4:	1a47883a 	add	r3,r3,r9
 20021a8:	31000115 	stw	r4,4(r6)
 20021ac:	31c00215 	stw	r7,8(r6)
 20021b0:	30800315 	stw	r2,12(r6)
 20021b4:	30c00415 	stw	r3,16(r6)
 20021b8:	003fdd06 	br	2002130 <__alt_mem_onchip_memory+0xfe001130>
 20021bc:	20ffef1e 	bne	r4,r3,200217c <__alt_mem_onchip_memory+0xfe00117c>
 20021c0:	31000015 	stw	r4,0(r6)
 20021c4:	10c00117 	ldw	r3,4(r2)
 20021c8:	30c00115 	stw	r3,4(r6)
 20021cc:	10c00217 	ldw	r3,8(r2)
 20021d0:	11000117 	ldw	r4,4(r2)
 20021d4:	29400117 	ldw	r5,4(r5)
 20021d8:	30c00215 	stw	r3,8(r6)
 20021dc:	10c00317 	ldw	r3,12(r2)
 20021e0:	2908703a 	and	r4,r5,r4
 20021e4:	30c00315 	stw	r3,12(r6)
 20021e8:	10c00417 	ldw	r3,16(r2)
 20021ec:	31000115 	stw	r4,4(r6)
 20021f0:	3005883a 	mov	r2,r6
 20021f4:	30c00415 	stw	r3,16(r6)
 20021f8:	f800283a 	ret
 20021fc:	580f883a 	mov	r7,r11
 2002200:	0019883a 	mov	r12,zero
 2002204:	001b883a 	mov	r13,zero
 2002208:	003f9f06 	br	2002088 <__alt_mem_onchip_memory+0xfe001088>
 200220c:	0115c83a 	sub	r10,zero,r4
 2002210:	00c00fc4 	movi	r3,63
 2002214:	1abfda16 	blt	r3,r10,2002180 <__alt_mem_onchip_memory+0xfe001180>
 2002218:	003f8906 	br	2002040 <__alt_mem_onchip_memory+0xfe001040>
 200221c:	627fb52e 	bgeu	r12,r9,20020f4 <__alt_mem_onchip_memory+0xfe0010f4>
 2002220:	003fc006 	br	2002124 <__alt_mem_onchip_memory+0xfe001124>
 2002224:	6205c83a 	sub	r2,r12,r8
 2002228:	6099803a 	cmpltu	r12,r12,r2
 200222c:	6a47c83a 	sub	r3,r13,r9
 2002230:	1b07c83a 	sub	r3,r3,r12
 2002234:	183f9d0e 	bge	r3,zero,20020ac <__alt_mem_onchip_memory+0xfe0010ac>
 2002238:	0085c83a 	sub	r2,zero,r2
 200223c:	1008c03a 	cmpne	r4,r2,zero
 2002240:	00c7c83a 	sub	r3,zero,r3
 2002244:	1907c83a 	sub	r3,r3,r4
 2002248:	01000044 	movi	r4,1
 200224c:	31000115 	stw	r4,4(r6)
 2002250:	31c00215 	stw	r7,8(r6)
 2002254:	30800315 	stw	r2,12(r6)
 2002258:	30c00415 	stw	r3,16(r6)
 200225c:	003f9706 	br	20020bc <__alt_mem_onchip_memory+0xfe0010bc>
 2002260:	203f8926 	beq	r4,zero,2002088 <__alt_mem_onchip_memory+0xfe001088>
 2002264:	50fff804 	addi	r3,r10,-32
 2002268:	3a8f883a 	add	r7,r7,r10
 200226c:	18002316 	blt	r3,zero,20022fc <_fpadd_parts+0x318>
 2002270:	68d6d83a 	srl	r11,r13,r3
 2002274:	001d883a 	mov	r14,zero
 2002278:	18001c16 	blt	r3,zero,20022ec <_fpadd_parts+0x308>
 200227c:	01000044 	movi	r4,1
 2002280:	20c6983a 	sll	r3,r4,r3
 2002284:	0015883a 	mov	r10,zero
 2002288:	513fffc4 	addi	r4,r10,-1
 200228c:	2295403a 	cmpgeu	r10,r4,r10
 2002290:	1a87c83a 	sub	r3,r3,r10
 2002294:	1b5a703a 	and	r13,r3,r13
 2002298:	2318703a 	and	r12,r4,r12
 200229c:	6358b03a 	or	r12,r12,r13
 20022a0:	6018c03a 	cmpne	r12,r12,zero
 20022a4:	62d8b03a 	or	r12,r12,r11
 20022a8:	701b883a 	mov	r13,r14
 20022ac:	003f7606 	br	2002088 <__alt_mem_onchip_memory+0xfe001088>
 20022b0:	4808907a 	slli	r4,r9,1
 20022b4:	02c007c4 	movi	r11,31
 20022b8:	5a97c83a 	sub	r11,r11,r10
 20022bc:	22c8983a 	sll	r4,r4,r11
 20022c0:	4296d83a 	srl	r11,r8,r10
 20022c4:	4a9cd83a 	srl	r14,r9,r10
 20022c8:	22d6b03a 	or	r11,r4,r11
 20022cc:	003f6106 	br	2002054 <__alt_mem_onchip_memory+0xfe001054>
 20022d0:	00c00044 	movi	r3,1
 20022d4:	1a94983a 	sll	r10,r3,r10
 20022d8:	0007883a 	mov	r3,zero
 20022dc:	003f6106 	br	2002064 <__alt_mem_onchip_memory+0xfe001064>
 20022e0:	013fff84 	movi	r4,-2
 20022e4:	21ff7c2e 	bgeu	r4,r7,20020d8 <__alt_mem_onchip_memory+0xfe0010d8>
 20022e8:	003f9106 	br	2002130 <__alt_mem_onchip_memory+0xfe001130>
 20022ec:	00c00044 	movi	r3,1
 20022f0:	1a94983a 	sll	r10,r3,r10
 20022f4:	0007883a 	mov	r3,zero
 20022f8:	003fe306 	br	2002288 <__alt_mem_onchip_memory+0xfe001288>
 20022fc:	6816907a 	slli	r11,r13,1
 2002300:	010007c4 	movi	r4,31
 2002304:	2289c83a 	sub	r4,r4,r10
 2002308:	5908983a 	sll	r4,r11,r4
 200230c:	6296d83a 	srl	r11,r12,r10
 2002310:	6a9cd83a 	srl	r14,r13,r10
 2002314:	22d6b03a 	or	r11,r4,r11
 2002318:	003fd706 	br	2002278 <__alt_mem_onchip_memory+0xfe001278>
 200231c:	193f971e 	bne	r3,r4,200217c <__alt_mem_onchip_memory+0xfe00117c>
 2002320:	11000117 	ldw	r4,4(r2)
 2002324:	28c00117 	ldw	r3,4(r5)
 2002328:	20ff9426 	beq	r4,r3,200217c <__alt_mem_onchip_memory+0xfe00117c>
 200232c:	008080b4 	movhi	r2,514
 2002330:	10b80f04 	addi	r2,r2,-8132
 2002334:	f800283a 	ret

02002338 <__adddf3>:
 2002338:	deffec04 	addi	sp,sp,-80
 200233c:	d9001115 	stw	r4,68(sp)
 2002340:	d9401215 	stw	r5,72(sp)
 2002344:	d9001104 	addi	r4,sp,68
 2002348:	d9400a04 	addi	r5,sp,40
 200234c:	dfc01315 	stw	ra,76(sp)
 2002350:	d9c01015 	stw	r7,64(sp)
 2002354:	d9800f15 	stw	r6,60(sp)
 2002358:	2002ba00 	call	2002ba0 <__unpack_d>
 200235c:	d9000f04 	addi	r4,sp,60
 2002360:	d9400504 	addi	r5,sp,20
 2002364:	2002ba00 	call	2002ba0 <__unpack_d>
 2002368:	d9000a04 	addi	r4,sp,40
 200236c:	d9400504 	addi	r5,sp,20
 2002370:	d80d883a 	mov	r6,sp
 2002374:	2001fe40 	call	2001fe4 <_fpadd_parts>
 2002378:	1009883a 	mov	r4,r2
 200237c:	200297c0 	call	200297c <__pack_d>
 2002380:	dfc01317 	ldw	ra,76(sp)
 2002384:	dec01404 	addi	sp,sp,80
 2002388:	f800283a 	ret

0200238c <__subdf3>:
 200238c:	deffec04 	addi	sp,sp,-80
 2002390:	d9001115 	stw	r4,68(sp)
 2002394:	d9401215 	stw	r5,72(sp)
 2002398:	d9001104 	addi	r4,sp,68
 200239c:	d9400a04 	addi	r5,sp,40
 20023a0:	dfc01315 	stw	ra,76(sp)
 20023a4:	d9c01015 	stw	r7,64(sp)
 20023a8:	d9800f15 	stw	r6,60(sp)
 20023ac:	2002ba00 	call	2002ba0 <__unpack_d>
 20023b0:	d9000f04 	addi	r4,sp,60
 20023b4:	d9400504 	addi	r5,sp,20
 20023b8:	2002ba00 	call	2002ba0 <__unpack_d>
 20023bc:	d8800617 	ldw	r2,24(sp)
 20023c0:	d9000a04 	addi	r4,sp,40
 20023c4:	d9400504 	addi	r5,sp,20
 20023c8:	d80d883a 	mov	r6,sp
 20023cc:	1080005c 	xori	r2,r2,1
 20023d0:	d8800615 	stw	r2,24(sp)
 20023d4:	2001fe40 	call	2001fe4 <_fpadd_parts>
 20023d8:	1009883a 	mov	r4,r2
 20023dc:	200297c0 	call	200297c <__pack_d>
 20023e0:	dfc01317 	ldw	ra,76(sp)
 20023e4:	dec01404 	addi	sp,sp,80
 20023e8:	f800283a 	ret

020023ec <__muldf3>:
 20023ec:	deffe404 	addi	sp,sp,-112
 20023f0:	d9001115 	stw	r4,68(sp)
 20023f4:	d9401215 	stw	r5,72(sp)
 20023f8:	d9001104 	addi	r4,sp,68
 20023fc:	d9400a04 	addi	r5,sp,40
 2002400:	dfc01b15 	stw	ra,108(sp)
 2002404:	d9800f15 	stw	r6,60(sp)
 2002408:	d9c01015 	stw	r7,64(sp)
 200240c:	ddc01a15 	stw	r23,104(sp)
 2002410:	dd801915 	stw	r22,100(sp)
 2002414:	dd401815 	stw	r21,96(sp)
 2002418:	dd001715 	stw	r20,92(sp)
 200241c:	dcc01615 	stw	r19,88(sp)
 2002420:	dc801515 	stw	r18,84(sp)
 2002424:	dc401415 	stw	r17,80(sp)
 2002428:	dc001315 	stw	r16,76(sp)
 200242c:	2002ba00 	call	2002ba0 <__unpack_d>
 2002430:	d9000f04 	addi	r4,sp,60
 2002434:	d9400504 	addi	r5,sp,20
 2002438:	2002ba00 	call	2002ba0 <__unpack_d>
 200243c:	d8c00a17 	ldw	r3,40(sp)
 2002440:	00800044 	movi	r2,1
 2002444:	10c01136 	bltu	r2,r3,200248c <__muldf3+0xa0>
 2002448:	d8c00b17 	ldw	r3,44(sp)
 200244c:	d8800617 	ldw	r2,24(sp)
 2002450:	d9000a04 	addi	r4,sp,40
 2002454:	1884c03a 	cmpne	r2,r3,r2
 2002458:	d8800b15 	stw	r2,44(sp)
 200245c:	200297c0 	call	200297c <__pack_d>
 2002460:	dfc01b17 	ldw	ra,108(sp)
 2002464:	ddc01a17 	ldw	r23,104(sp)
 2002468:	dd801917 	ldw	r22,100(sp)
 200246c:	dd401817 	ldw	r21,96(sp)
 2002470:	dd001717 	ldw	r20,92(sp)
 2002474:	dcc01617 	ldw	r19,88(sp)
 2002478:	dc801517 	ldw	r18,84(sp)
 200247c:	dc401417 	ldw	r17,80(sp)
 2002480:	dc001317 	ldw	r16,76(sp)
 2002484:	dec01c04 	addi	sp,sp,112
 2002488:	f800283a 	ret
 200248c:	d9000517 	ldw	r4,20(sp)
 2002490:	11000636 	bltu	r2,r4,20024ac <__muldf3+0xc0>
 2002494:	d8800617 	ldw	r2,24(sp)
 2002498:	d8c00b17 	ldw	r3,44(sp)
 200249c:	d9000504 	addi	r4,sp,20
 20024a0:	1884c03a 	cmpne	r2,r3,r2
 20024a4:	d8800615 	stw	r2,24(sp)
 20024a8:	003fec06 	br	200245c <__alt_mem_onchip_memory+0xfe00145c>
 20024ac:	00800104 	movi	r2,4
 20024b0:	1880051e 	bne	r3,r2,20024c8 <__muldf3+0xdc>
 20024b4:	00800084 	movi	r2,2
 20024b8:	20bfe31e 	bne	r4,r2,2002448 <__alt_mem_onchip_memory+0xfe001448>
 20024bc:	010080b4 	movhi	r4,514
 20024c0:	21380f04 	addi	r4,r4,-8132
 20024c4:	003fe506 	br	200245c <__alt_mem_onchip_memory+0xfe00145c>
 20024c8:	2080031e 	bne	r4,r2,20024d8 <__muldf3+0xec>
 20024cc:	00800084 	movi	r2,2
 20024d0:	18bffa26 	beq	r3,r2,20024bc <__alt_mem_onchip_memory+0xfe0014bc>
 20024d4:	003fef06 	br	2002494 <__alt_mem_onchip_memory+0xfe001494>
 20024d8:	00800084 	movi	r2,2
 20024dc:	18bfda26 	beq	r3,r2,2002448 <__alt_mem_onchip_memory+0xfe001448>
 20024e0:	20bfec26 	beq	r4,r2,2002494 <__alt_mem_onchip_memory+0xfe001494>
 20024e4:	dc000d17 	ldw	r16,52(sp)
 20024e8:	dd000817 	ldw	r20,32(sp)
 20024ec:	dc800917 	ldw	r18,36(sp)
 20024f0:	8009883a 	mov	r4,r16
 20024f4:	000b883a 	mov	r5,zero
 20024f8:	a00d883a 	mov	r6,r20
 20024fc:	000f883a 	mov	r7,zero
 2002500:	20028280 	call	2002828 <__muldi3>
 2002504:	dc400e17 	ldw	r17,56(sp)
 2002508:	9009883a 	mov	r4,r18
 200250c:	800d883a 	mov	r6,r16
 2002510:	000b883a 	mov	r5,zero
 2002514:	000f883a 	mov	r7,zero
 2002518:	102f883a 	mov	r23,r2
 200251c:	1827883a 	mov	r19,r3
 2002520:	20028280 	call	2002828 <__muldi3>
 2002524:	900d883a 	mov	r6,r18
 2002528:	8809883a 	mov	r4,r17
 200252c:	000b883a 	mov	r5,zero
 2002530:	000f883a 	mov	r7,zero
 2002534:	102b883a 	mov	r21,r2
 2002538:	1821883a 	mov	r16,r3
 200253c:	20028280 	call	2002828 <__muldi3>
 2002540:	8809883a 	mov	r4,r17
 2002544:	000b883a 	mov	r5,zero
 2002548:	a00d883a 	mov	r6,r20
 200254c:	000f883a 	mov	r7,zero
 2002550:	102d883a 	mov	r22,r2
 2002554:	1825883a 	mov	r18,r3
 2002558:	20028280 	call	2002828 <__muldi3>
 200255c:	154b883a 	add	r5,r2,r21
 2002560:	2889803a 	cmpltu	r4,r5,r2
 2002564:	1c07883a 	add	r3,r3,r16
 2002568:	20c9883a 	add	r4,r4,r3
 200256c:	24004b36 	bltu	r4,r16,200269c <__muldf3+0x2b0>
 2002570:	8100011e 	bne	r16,r4,2002578 <__muldf3+0x18c>
 2002574:	2d404936 	bltu	r5,r21,200269c <__muldf3+0x2b0>
 2002578:	0011883a 	mov	r8,zero
 200257c:	0007883a 	mov	r3,zero
 2002580:	2ccb883a 	add	r5,r5,r19
 2002584:	b80d883a 	mov	r6,r23
 2002588:	2cc0012e 	bgeu	r5,r19,2002590 <__muldf3+0x1a4>
 200258c:	02000044 	movi	r8,1
 2002590:	258f883a 	add	r7,r4,r22
 2002594:	3909803a 	cmpltu	r4,r7,r4
 2002598:	da400c17 	ldw	r9,48(sp)
 200259c:	2489883a 	add	r4,r4,r18
 20025a0:	d8800717 	ldw	r2,28(sp)
 20025a4:	20c9883a 	add	r4,r4,r3
 20025a8:	da800b17 	ldw	r10,44(sp)
 20025ac:	d8c00617 	ldw	r3,24(sp)
 20025b0:	3a11883a 	add	r8,r7,r8
 20025b4:	4885883a 	add	r2,r9,r2
 20025b8:	50c6c03a 	cmpne	r3,r10,r3
 20025bc:	41cf803a 	cmpltu	r7,r8,r7
 20025c0:	12400104 	addi	r9,r2,4
 20025c4:	d8c00115 	stw	r3,4(sp)
 20025c8:	3909883a 	add	r4,r7,r4
 20025cc:	da400215 	stw	r9,8(sp)
 20025d0:	03480034 	movhi	r13,8192
 20025d4:	6b7fffc4 	addi	r13,r13,-1
 20025d8:	4007883a 	mov	r3,r8
 20025dc:	6900102e 	bgeu	r13,r4,2002620 <__muldf3+0x234>
 20025e0:	10800144 	addi	r2,r2,5
 20025e4:	180ed07a 	srli	r7,r3,1
 20025e8:	18c0004c 	andi	r3,r3,1
 20025ec:	201097fa 	slli	r8,r4,31
 20025f0:	281697fa 	slli	r11,r5,31
 20025f4:	2008d07a 	srli	r4,r4,1
 20025f8:	3014d07a 	srli	r10,r6,1
 20025fc:	2812d07a 	srli	r9,r5,1
 2002600:	1019883a 	mov	r12,r2
 2002604:	18000226 	beq	r3,zero,2002610 <__muldf3+0x224>
 2002608:	5a8cb03a 	or	r6,r11,r10
 200260c:	49600034 	orhi	r5,r9,32768
 2002610:	41c6b03a 	or	r3,r8,r7
 2002614:	10800044 	addi	r2,r2,1
 2002618:	693ff236 	bltu	r13,r4,20025e4 <__alt_mem_onchip_memory+0xfe0015e4>
 200261c:	db000215 	stw	r12,8(sp)
 2002620:	03440034 	movhi	r13,4096
 2002624:	6b7fffc4 	addi	r13,r13,-1
 2002628:	69001336 	bltu	r13,r4,2002678 <__muldf3+0x28c>
 200262c:	d8800217 	ldw	r2,8(sp)
 2002630:	10bfffc4 	addi	r2,r2,-1
 2002634:	18d3883a 	add	r9,r3,r3
 2002638:	48c7803a 	cmpltu	r3,r9,r3
 200263c:	2109883a 	add	r4,r4,r4
 2002640:	190f883a 	add	r7,r3,r4
 2002644:	3191883a 	add	r8,r6,r6
 2002648:	4197803a 	cmpltu	r11,r8,r6
 200264c:	2955883a 	add	r10,r5,r5
 2002650:	1019883a 	mov	r12,r2
 2002654:	4807883a 	mov	r3,r9
 2002658:	3809883a 	mov	r4,r7
 200265c:	2800010e 	bge	r5,zero,2002664 <__muldf3+0x278>
 2002660:	48c00054 	ori	r3,r9,1
 2002664:	400d883a 	mov	r6,r8
 2002668:	5a8b883a 	add	r5,r11,r10
 200266c:	10bfffc4 	addi	r2,r2,-1
 2002670:	69fff02e 	bgeu	r13,r7,2002634 <__alt_mem_onchip_memory+0xfe001634>
 2002674:	db000215 	stw	r12,8(sp)
 2002678:	18803fcc 	andi	r2,r3,255
 200267c:	01c02004 	movi	r7,128
 2002680:	11c00926 	beq	r2,r7,20026a8 <__muldf3+0x2bc>
 2002684:	008000c4 	movi	r2,3
 2002688:	d9000415 	stw	r4,16(sp)
 200268c:	d8c00315 	stw	r3,12(sp)
 2002690:	d8800015 	stw	r2,0(sp)
 2002694:	d809883a 	mov	r4,sp
 2002698:	003f7006 	br	200245c <__alt_mem_onchip_memory+0xfe00145c>
 200269c:	0011883a 	mov	r8,zero
 20026a0:	00c00044 	movi	r3,1
 20026a4:	003fb606 	br	2002580 <__alt_mem_onchip_memory+0xfe001580>
 20026a8:	19c0400c 	andi	r7,r3,256
 20026ac:	383ff51e 	bne	r7,zero,2002684 <__alt_mem_onchip_memory+0xfe001684>
 20026b0:	314ab03a 	or	r5,r6,r5
 20026b4:	283ff326 	beq	r5,zero,2002684 <__alt_mem_onchip_memory+0xfe001684>
 20026b8:	1885883a 	add	r2,r3,r2
 20026bc:	10cb803a 	cmpltu	r5,r2,r3
 20026c0:	00ffc004 	movi	r3,-256
 20026c4:	10c6703a 	and	r3,r2,r3
 20026c8:	2909883a 	add	r4,r5,r4
 20026cc:	003fed06 	br	2002684 <__alt_mem_onchip_memory+0xfe001684>

020026d0 <__gedf2>:
 20026d0:	defff104 	addi	sp,sp,-60
 20026d4:	d9000c15 	stw	r4,48(sp)
 20026d8:	d9400d15 	stw	r5,52(sp)
 20026dc:	d9000c04 	addi	r4,sp,48
 20026e0:	d9400504 	addi	r5,sp,20
 20026e4:	dfc00e15 	stw	ra,56(sp)
 20026e8:	d9800a15 	stw	r6,40(sp)
 20026ec:	d9c00b15 	stw	r7,44(sp)
 20026f0:	2002ba00 	call	2002ba0 <__unpack_d>
 20026f4:	d9000a04 	addi	r4,sp,40
 20026f8:	d80b883a 	mov	r5,sp
 20026fc:	2002ba00 	call	2002ba0 <__unpack_d>
 2002700:	d8c00517 	ldw	r3,20(sp)
 2002704:	00800044 	movi	r2,1
 2002708:	10c0082e 	bgeu	r2,r3,200272c <__gedf2+0x5c>
 200270c:	d8c00017 	ldw	r3,0(sp)
 2002710:	10c0062e 	bgeu	r2,r3,200272c <__gedf2+0x5c>
 2002714:	d9000504 	addi	r4,sp,20
 2002718:	d80b883a 	mov	r5,sp
 200271c:	2002ca40 	call	2002ca4 <__fpcmp_parts_d>
 2002720:	dfc00e17 	ldw	ra,56(sp)
 2002724:	dec00f04 	addi	sp,sp,60
 2002728:	f800283a 	ret
 200272c:	00bfffc4 	movi	r2,-1
 2002730:	003ffb06 	br	2002720 <__alt_mem_onchip_memory+0xfe001720>

02002734 <__ledf2>:
 2002734:	defff104 	addi	sp,sp,-60
 2002738:	d9000c15 	stw	r4,48(sp)
 200273c:	d9400d15 	stw	r5,52(sp)
 2002740:	d9000c04 	addi	r4,sp,48
 2002744:	d9400504 	addi	r5,sp,20
 2002748:	dfc00e15 	stw	ra,56(sp)
 200274c:	d9800a15 	stw	r6,40(sp)
 2002750:	d9c00b15 	stw	r7,44(sp)
 2002754:	2002ba00 	call	2002ba0 <__unpack_d>
 2002758:	d9000a04 	addi	r4,sp,40
 200275c:	d80b883a 	mov	r5,sp
 2002760:	2002ba00 	call	2002ba0 <__unpack_d>
 2002764:	d8c00517 	ldw	r3,20(sp)
 2002768:	00800044 	movi	r2,1
 200276c:	10c0052e 	bgeu	r2,r3,2002784 <__ledf2+0x50>
 2002770:	d8c00017 	ldw	r3,0(sp)
 2002774:	10c0032e 	bgeu	r2,r3,2002784 <__ledf2+0x50>
 2002778:	d9000504 	addi	r4,sp,20
 200277c:	d80b883a 	mov	r5,sp
 2002780:	2002ca40 	call	2002ca4 <__fpcmp_parts_d>
 2002784:	dfc00e17 	ldw	ra,56(sp)
 2002788:	dec00f04 	addi	sp,sp,60
 200278c:	f800283a 	ret

02002790 <__make_dp>:
 2002790:	defff904 	addi	sp,sp,-28
 2002794:	d8800717 	ldw	r2,28(sp)
 2002798:	d9000015 	stw	r4,0(sp)
 200279c:	d809883a 	mov	r4,sp
 20027a0:	dfc00515 	stw	ra,20(sp)
 20027a4:	d9c00615 	stw	r7,24(sp)
 20027a8:	d9400115 	stw	r5,4(sp)
 20027ac:	d9800215 	stw	r6,8(sp)
 20027b0:	d9c00315 	stw	r7,12(sp)
 20027b4:	d8800415 	stw	r2,16(sp)
 20027b8:	200297c0 	call	200297c <__pack_d>
 20027bc:	dfc00517 	ldw	ra,20(sp)
 20027c0:	dec00704 	addi	sp,sp,28
 20027c4:	f800283a 	ret

020027c8 <__truncdfsf2>:
 20027c8:	defff804 	addi	sp,sp,-32
 20027cc:	d9000515 	stw	r4,20(sp)
 20027d0:	d9400615 	stw	r5,24(sp)
 20027d4:	d9000504 	addi	r4,sp,20
 20027d8:	d80b883a 	mov	r5,sp
 20027dc:	dfc00715 	stw	ra,28(sp)
 20027e0:	2002ba00 	call	2002ba0 <__unpack_d>
 20027e4:	d8800317 	ldw	r2,12(sp)
 20027e8:	d8c00417 	ldw	r3,16(sp)
 20027ec:	01100034 	movhi	r4,16384
 20027f0:	213fffc4 	addi	r4,r4,-1
 20027f4:	100ed7ba 	srli	r7,r2,30
 20027f8:	180690ba 	slli	r3,r3,2
 20027fc:	1104703a 	and	r2,r2,r4
 2002800:	19ceb03a 	or	r7,r3,r7
 2002804:	10000126 	beq	r2,zero,200280c <__truncdfsf2+0x44>
 2002808:	39c00054 	ori	r7,r7,1
 200280c:	d9000017 	ldw	r4,0(sp)
 2002810:	d9400117 	ldw	r5,4(sp)
 2002814:	d9800217 	ldw	r6,8(sp)
 2002818:	20029500 	call	2002950 <__make_fp>
 200281c:	dfc00717 	ldw	ra,28(sp)
 2002820:	dec00804 	addi	sp,sp,32
 2002824:	f800283a 	ret

02002828 <__muldi3>:
 2002828:	20bfffcc 	andi	r2,r4,65535
 200282c:	2010d43a 	srli	r8,r4,16
 2002830:	30ffffcc 	andi	r3,r6,65535
 2002834:	3014d43a 	srli	r10,r6,16
 2002838:	1893383a 	mul	r9,r3,r2
 200283c:	1a07383a 	mul	r3,r3,r8
 2002840:	5085383a 	mul	r2,r10,r2
 2002844:	4816d43a 	srli	r11,r9,16
 2002848:	5211383a 	mul	r8,r10,r8
 200284c:	1885883a 	add	r2,r3,r2
 2002850:	12c5883a 	add	r2,r2,r11
 2002854:	10c0022e 	bgeu	r2,r3,2002860 <__muldi3+0x38>
 2002858:	00c00074 	movhi	r3,1
 200285c:	40d1883a 	add	r8,r8,r3
 2002860:	1014d43a 	srli	r10,r2,16
 2002864:	21c9383a 	mul	r4,r4,r7
 2002868:	314d383a 	mul	r6,r6,r5
 200286c:	1004943a 	slli	r2,r2,16
 2002870:	4291883a 	add	r8,r8,r10
 2002874:	4a7fffcc 	andi	r9,r9,65535
 2002878:	2187883a 	add	r3,r4,r6
 200287c:	1245883a 	add	r2,r2,r9
 2002880:	1a07883a 	add	r3,r3,r8
 2002884:	f800283a 	ret

02002888 <__unpack_f>:
 2002888:	20c00017 	ldw	r3,0(r4)
 200288c:	00802034 	movhi	r2,128
 2002890:	10bfffc4 	addi	r2,r2,-1
 2002894:	1808d5fa 	srli	r4,r3,23
 2002898:	180cd7fa 	srli	r6,r3,31
 200289c:	1884703a 	and	r2,r3,r2
 20028a0:	21003fcc 	andi	r4,r4,255
 20028a4:	29800115 	stw	r6,4(r5)
 20028a8:	2000111e 	bne	r4,zero,20028f0 <__unpack_f+0x68>
 20028ac:	10001a26 	beq	r2,zero,2002918 <__unpack_f+0x90>
 20028b0:	00ffe084 	movi	r3,-126
 20028b4:	100491fa 	slli	r2,r2,7
 20028b8:	28c00215 	stw	r3,8(r5)
 20028bc:	00c000c4 	movi	r3,3
 20028c0:	28c00015 	stw	r3,0(r5)
 20028c4:	01900034 	movhi	r6,16384
 20028c8:	31bfffc4 	addi	r6,r6,-1
 20028cc:	30801036 	bltu	r6,r2,2002910 <__unpack_f+0x88>
 20028d0:	00ffe044 	movi	r3,-127
 20028d4:	1085883a 	add	r2,r2,r2
 20028d8:	1809883a 	mov	r4,r3
 20028dc:	18ffffc4 	addi	r3,r3,-1
 20028e0:	30bffc2e 	bgeu	r6,r2,20028d4 <__alt_mem_onchip_memory+0xfe0018d4>
 20028e4:	29000215 	stw	r4,8(r5)
 20028e8:	28800315 	stw	r2,12(r5)
 20028ec:	f800283a 	ret
 20028f0:	01803fc4 	movi	r6,255
 20028f4:	21800b26 	beq	r4,r6,2002924 <__unpack_f+0x9c>
 20028f8:	100491fa 	slli	r2,r2,7
 20028fc:	213fe044 	addi	r4,r4,-127
 2002900:	00c000c4 	movi	r3,3
 2002904:	10900034 	orhi	r2,r2,16384
 2002908:	29000215 	stw	r4,8(r5)
 200290c:	28c00015 	stw	r3,0(r5)
 2002910:	28800315 	stw	r2,12(r5)
 2002914:	f800283a 	ret
 2002918:	00800084 	movi	r2,2
 200291c:	28800015 	stw	r2,0(r5)
 2002920:	f800283a 	ret
 2002924:	10000526 	beq	r2,zero,200293c <__unpack_f+0xb4>
 2002928:	18c0042c 	andhi	r3,r3,16
 200292c:	18000626 	beq	r3,zero,2002948 <__unpack_f+0xc0>
 2002930:	00c00044 	movi	r3,1
 2002934:	28c00015 	stw	r3,0(r5)
 2002938:	003ff506 	br	2002910 <__alt_mem_onchip_memory+0xfe001910>
 200293c:	00800104 	movi	r2,4
 2002940:	28800015 	stw	r2,0(r5)
 2002944:	f800283a 	ret
 2002948:	28000015 	stw	zero,0(r5)
 200294c:	003ff006 	br	2002910 <__alt_mem_onchip_memory+0xfe001910>

02002950 <__make_fp>:
 2002950:	defffb04 	addi	sp,sp,-20
 2002954:	d9000015 	stw	r4,0(sp)
 2002958:	d809883a 	mov	r4,sp
 200295c:	dfc00415 	stw	ra,16(sp)
 2002960:	d9400115 	stw	r5,4(sp)
 2002964:	d9800215 	stw	r6,8(sp)
 2002968:	d9c00315 	stw	r7,12(sp)
 200296c:	2002dfc0 	call	2002dfc <__pack_f>
 2002970:	dfc00417 	ldw	ra,16(sp)
 2002974:	dec00504 	addi	sp,sp,20
 2002978:	f800283a 	ret

0200297c <__pack_d>:
 200297c:	20800017 	ldw	r2,0(r4)
 2002980:	defff804 	addi	sp,sp,-32
 2002984:	dcc00315 	stw	r19,12(sp)
 2002988:	dc800215 	stw	r18,8(sp)
 200298c:	dfc00715 	stw	ra,28(sp)
 2002990:	dd800615 	stw	r22,24(sp)
 2002994:	dd400515 	stw	r21,20(sp)
 2002998:	dd000415 	stw	r20,16(sp)
 200299c:	dc400115 	stw	r17,4(sp)
 20029a0:	dc000015 	stw	r16,0(sp)
 20029a4:	04800044 	movi	r18,1
 20029a8:	24400317 	ldw	r17,12(r4)
 20029ac:	24000417 	ldw	r16,16(r4)
 20029b0:	24c00117 	ldw	r19,4(r4)
 20029b4:	9080422e 	bgeu	r18,r2,2002ac0 <__pack_d+0x144>
 20029b8:	00c00104 	movi	r3,4
 20029bc:	10c03c26 	beq	r2,r3,2002ab0 <__pack_d+0x134>
 20029c0:	00c00084 	movi	r3,2
 20029c4:	10c01926 	beq	r2,r3,2002a2c <__pack_d+0xb0>
 20029c8:	8c04b03a 	or	r2,r17,r16
 20029cc:	10001726 	beq	r2,zero,2002a2c <__pack_d+0xb0>
 20029d0:	21000217 	ldw	r4,8(r4)
 20029d4:	00bf0084 	movi	r2,-1022
 20029d8:	20804016 	blt	r4,r2,2002adc <__pack_d+0x160>
 20029dc:	0080ffc4 	movi	r2,1023
 20029e0:	11003316 	blt	r2,r4,2002ab0 <__pack_d+0x134>
 20029e4:	88803fcc 	andi	r2,r17,255
 20029e8:	00c02004 	movi	r3,128
 20029ec:	10c02926 	beq	r2,r3,2002a94 <__pack_d+0x118>
 20029f0:	88801fc4 	addi	r2,r17,127
 20029f4:	1463803a 	cmpltu	r17,r2,r17
 20029f8:	8c21883a 	add	r16,r17,r16
 20029fc:	1023883a 	mov	r17,r2
 2002a00:	00880034 	movhi	r2,8192
 2002a04:	10bfffc4 	addi	r2,r2,-1
 2002a08:	14001c36 	bltu	r2,r16,2002a7c <__pack_d+0x100>
 2002a0c:	2100ffc4 	addi	r4,r4,1023
 2002a10:	8006963a 	slli	r3,r16,24
 2002a14:	8804d23a 	srli	r2,r17,8
 2002a18:	8020913a 	slli	r16,r16,4
 2002a1c:	2101ffcc 	andi	r4,r4,2047
 2002a20:	1884b03a 	or	r2,r3,r2
 2002a24:	8020d33a 	srli	r16,r16,12
 2002a28:	00000306 	br	2002a38 <__pack_d+0xbc>
 2002a2c:	0009883a 	mov	r4,zero
 2002a30:	0005883a 	mov	r2,zero
 2002a34:	0021883a 	mov	r16,zero
 2002a38:	2008953a 	slli	r4,r4,20
 2002a3c:	982697fa 	slli	r19,r19,31
 2002a40:	00c00434 	movhi	r3,16
 2002a44:	18ffffc4 	addi	r3,r3,-1
 2002a48:	80e0703a 	and	r16,r16,r3
 2002a4c:	8106b03a 	or	r3,r16,r4
 2002a50:	1cc6b03a 	or	r3,r3,r19
 2002a54:	dfc00717 	ldw	ra,28(sp)
 2002a58:	dd800617 	ldw	r22,24(sp)
 2002a5c:	dd400517 	ldw	r21,20(sp)
 2002a60:	dd000417 	ldw	r20,16(sp)
 2002a64:	dcc00317 	ldw	r19,12(sp)
 2002a68:	dc800217 	ldw	r18,8(sp)
 2002a6c:	dc400117 	ldw	r17,4(sp)
 2002a70:	dc000017 	ldw	r16,0(sp)
 2002a74:	dec00804 	addi	sp,sp,32
 2002a78:	f800283a 	ret
 2002a7c:	800697fa 	slli	r3,r16,31
 2002a80:	8804d07a 	srli	r2,r17,1
 2002a84:	21010004 	addi	r4,r4,1024
 2002a88:	8020d07a 	srli	r16,r16,1
 2002a8c:	18a2b03a 	or	r17,r3,r2
 2002a90:	003fdf06 	br	2002a10 <__alt_mem_onchip_memory+0xfe001a10>
 2002a94:	88c0400c 	andi	r3,r17,256
 2002a98:	183fd926 	beq	r3,zero,2002a00 <__alt_mem_onchip_memory+0xfe001a00>
 2002a9c:	8885883a 	add	r2,r17,r2
 2002aa0:	1463803a 	cmpltu	r17,r2,r17
 2002aa4:	8c21883a 	add	r16,r17,r16
 2002aa8:	1023883a 	mov	r17,r2
 2002aac:	003fd406 	br	2002a00 <__alt_mem_onchip_memory+0xfe001a00>
 2002ab0:	0101ffc4 	movi	r4,2047
 2002ab4:	0005883a 	mov	r2,zero
 2002ab8:	0021883a 	mov	r16,zero
 2002abc:	003fde06 	br	2002a38 <__alt_mem_onchip_memory+0xfe001a38>
 2002ac0:	84000234 	orhi	r16,r16,8
 2002ac4:	00c00434 	movhi	r3,16
 2002ac8:	18ffffc4 	addi	r3,r3,-1
 2002acc:	8805883a 	mov	r2,r17
 2002ad0:	80e0703a 	and	r16,r16,r3
 2002ad4:	0101ffc4 	movi	r4,2047
 2002ad8:	003fd706 	br	2002a38 <__alt_mem_onchip_memory+0xfe001a38>
 2002adc:	1129c83a 	sub	r20,r2,r4
 2002ae0:	00800e04 	movi	r2,56
 2002ae4:	15002716 	blt	r2,r20,2002b84 <__pack_d+0x208>
 2002ae8:	800b883a 	mov	r5,r16
 2002aec:	a00d883a 	mov	r6,r20
 2002af0:	8809883a 	mov	r4,r17
 2002af4:	2002d740 	call	2002d74 <__lshrdi3>
 2002af8:	9009883a 	mov	r4,r18
 2002afc:	000b883a 	mov	r5,zero
 2002b00:	a00d883a 	mov	r6,r20
 2002b04:	102d883a 	mov	r22,r2
 2002b08:	182b883a 	mov	r21,r3
 2002b0c:	2002db80 	call	2002db8 <__ashldi3>
 2002b10:	1009003a 	cmpeq	r4,r2,zero
 2002b14:	1907c83a 	sub	r3,r3,r4
 2002b18:	10bfffc4 	addi	r2,r2,-1
 2002b1c:	1c20703a 	and	r16,r3,r16
 2002b20:	1444703a 	and	r2,r2,r17
 2002b24:	1404b03a 	or	r2,r2,r16
 2002b28:	1004c03a 	cmpne	r2,r2,zero
 2002b2c:	1584b03a 	or	r2,r2,r22
 2002b30:	11003fcc 	andi	r4,r2,255
 2002b34:	01402004 	movi	r5,128
 2002b38:	a807883a 	mov	r3,r21
 2002b3c:	2140131e 	bne	r4,r5,2002b8c <__pack_d+0x210>
 2002b40:	1140400c 	andi	r5,r2,256
 2002b44:	28000426 	beq	r5,zero,2002b58 <__pack_d+0x1dc>
 2002b48:	1109883a 	add	r4,r2,r4
 2002b4c:	2085803a 	cmpltu	r2,r4,r2
 2002b50:	1547883a 	add	r3,r2,r21
 2002b54:	2005883a 	mov	r2,r4
 2002b58:	1808963a 	slli	r4,r3,24
 2002b5c:	1004d23a 	srli	r2,r2,8
 2002b60:	1820913a 	slli	r16,r3,4
 2002b64:	01440034 	movhi	r5,4096
 2002b68:	297fffc4 	addi	r5,r5,-1
 2002b6c:	2084b03a 	or	r2,r4,r2
 2002b70:	8020d33a 	srli	r16,r16,12
 2002b74:	01000044 	movi	r4,1
 2002b78:	28ffaf36 	bltu	r5,r3,2002a38 <__alt_mem_onchip_memory+0xfe001a38>
 2002b7c:	0009883a 	mov	r4,zero
 2002b80:	003fad06 	br	2002a38 <__alt_mem_onchip_memory+0xfe001a38>
 2002b84:	0005883a 	mov	r2,zero
 2002b88:	0007883a 	mov	r3,zero
 2002b8c:	11001fc4 	addi	r4,r2,127
 2002b90:	2085803a 	cmpltu	r2,r4,r2
 2002b94:	10c7883a 	add	r3,r2,r3
 2002b98:	2005883a 	mov	r2,r4
 2002b9c:	003fee06 	br	2002b58 <__alt_mem_onchip_memory+0xfe001b58>

02002ba0 <__unpack_d>:
 2002ba0:	21800117 	ldw	r6,4(r4)
 2002ba4:	20c00017 	ldw	r3,0(r4)
 2002ba8:	3004d7fa 	srli	r2,r6,31
 2002bac:	3008d53a 	srli	r4,r6,20
 2002bb0:	28800115 	stw	r2,4(r5)
 2002bb4:	2101ffcc 	andi	r4,r4,2047
 2002bb8:	00800434 	movhi	r2,16
 2002bbc:	10bfffc4 	addi	r2,r2,-1
 2002bc0:	3084703a 	and	r2,r6,r2
 2002bc4:	20001a1e 	bne	r4,zero,2002c30 <__unpack_d+0x90>
 2002bc8:	1888b03a 	or	r4,r3,r2
 2002bcc:	20002626 	beq	r4,zero,2002c68 <__unpack_d+0xc8>
 2002bd0:	1808d63a 	srli	r4,r3,24
 2002bd4:	1004923a 	slli	r2,r2,8
 2002bd8:	01bf0084 	movi	r6,-1022
 2002bdc:	29800215 	stw	r6,8(r5)
 2002be0:	2084b03a 	or	r2,r4,r2
 2002be4:	010000c4 	movi	r4,3
 2002be8:	29000015 	stw	r4,0(r5)
 2002bec:	02040034 	movhi	r8,4096
 2002bf0:	423fffc4 	addi	r8,r8,-1
 2002bf4:	1806923a 	slli	r3,r3,8
 2002bf8:	40801836 	bltu	r8,r2,2002c5c <__unpack_d+0xbc>
 2002bfc:	013f0044 	movi	r4,-1023
 2002c00:	18cd883a 	add	r6,r3,r3
 2002c04:	30c7803a 	cmpltu	r3,r6,r3
 2002c08:	1085883a 	add	r2,r2,r2
 2002c0c:	1885883a 	add	r2,r3,r2
 2002c10:	200f883a 	mov	r7,r4
 2002c14:	3007883a 	mov	r3,r6
 2002c18:	213fffc4 	addi	r4,r4,-1
 2002c1c:	40bff82e 	bgeu	r8,r2,2002c00 <__alt_mem_onchip_memory+0xfe001c00>
 2002c20:	29c00215 	stw	r7,8(r5)
 2002c24:	28c00315 	stw	r3,12(r5)
 2002c28:	28800415 	stw	r2,16(r5)
 2002c2c:	f800283a 	ret
 2002c30:	01c1ffc4 	movi	r7,2047
 2002c34:	21c00f26 	beq	r4,r7,2002c74 <__unpack_d+0xd4>
 2002c38:	180cd63a 	srli	r6,r3,24
 2002c3c:	1004923a 	slli	r2,r2,8
 2002c40:	213f0044 	addi	r4,r4,-1023
 2002c44:	1806923a 	slli	r3,r3,8
 2002c48:	3084b03a 	or	r2,r6,r2
 2002c4c:	29000215 	stw	r4,8(r5)
 2002c50:	010000c4 	movi	r4,3
 2002c54:	10840034 	orhi	r2,r2,4096
 2002c58:	29000015 	stw	r4,0(r5)
 2002c5c:	28c00315 	stw	r3,12(r5)
 2002c60:	28800415 	stw	r2,16(r5)
 2002c64:	f800283a 	ret
 2002c68:	00800084 	movi	r2,2
 2002c6c:	28800015 	stw	r2,0(r5)
 2002c70:	f800283a 	ret
 2002c74:	1888b03a 	or	r4,r3,r2
 2002c78:	20000526 	beq	r4,zero,2002c90 <__unpack_d+0xf0>
 2002c7c:	3180022c 	andhi	r6,r6,8
 2002c80:	30000626 	beq	r6,zero,2002c9c <__unpack_d+0xfc>
 2002c84:	01000044 	movi	r4,1
 2002c88:	29000015 	stw	r4,0(r5)
 2002c8c:	003ff306 	br	2002c5c <__alt_mem_onchip_memory+0xfe001c5c>
 2002c90:	00800104 	movi	r2,4
 2002c94:	28800015 	stw	r2,0(r5)
 2002c98:	f800283a 	ret
 2002c9c:	28000015 	stw	zero,0(r5)
 2002ca0:	003fee06 	br	2002c5c <__alt_mem_onchip_memory+0xfe001c5c>

02002ca4 <__fpcmp_parts_d>:
 2002ca4:	20c00017 	ldw	r3,0(r4)
 2002ca8:	00800044 	movi	r2,1
 2002cac:	10c0142e 	bgeu	r2,r3,2002d00 <__fpcmp_parts_d+0x5c>
 2002cb0:	29800017 	ldw	r6,0(r5)
 2002cb4:	1180122e 	bgeu	r2,r6,2002d00 <__fpcmp_parts_d+0x5c>
 2002cb8:	01c00104 	movi	r7,4
 2002cbc:	19c02826 	beq	r3,r7,2002d60 <__fpcmp_parts_d+0xbc>
 2002cc0:	31c00926 	beq	r6,r7,2002ce8 <__fpcmp_parts_d+0x44>
 2002cc4:	01c00084 	movi	r7,2
 2002cc8:	19c00626 	beq	r3,r7,2002ce4 <__fpcmp_parts_d+0x40>
 2002ccc:	31c00a26 	beq	r6,r7,2002cf8 <__fpcmp_parts_d+0x54>
 2002cd0:	20c00117 	ldw	r3,4(r4)
 2002cd4:	29800117 	ldw	r6,4(r5)
 2002cd8:	19800b26 	beq	r3,r6,2002d08 <__fpcmp_parts_d+0x64>
 2002cdc:	1800041e 	bne	r3,zero,2002cf0 <__fpcmp_parts_d+0x4c>
 2002ce0:	f800283a 	ret
 2002ce4:	30c01a26 	beq	r6,r3,2002d50 <__fpcmp_parts_d+0xac>
 2002ce8:	28800117 	ldw	r2,4(r5)
 2002cec:	1000041e 	bne	r2,zero,2002d00 <__fpcmp_parts_d+0x5c>
 2002cf0:	00bfffc4 	movi	r2,-1
 2002cf4:	f800283a 	ret
 2002cf8:	20800117 	ldw	r2,4(r4)
 2002cfc:	103ffc1e 	bne	r2,zero,2002cf0 <__alt_mem_onchip_memory+0xfe001cf0>
 2002d00:	00800044 	movi	r2,1
 2002d04:	f800283a 	ret
 2002d08:	21c00217 	ldw	r7,8(r4)
 2002d0c:	29800217 	ldw	r6,8(r5)
 2002d10:	31c0020e 	bge	r6,r7,2002d1c <__fpcmp_parts_d+0x78>
 2002d14:	183ff61e 	bne	r3,zero,2002cf0 <__alt_mem_onchip_memory+0xfe001cf0>
 2002d18:	f800283a 	ret
 2002d1c:	39800a16 	blt	r7,r6,2002d48 <__fpcmp_parts_d+0xa4>
 2002d20:	20800417 	ldw	r2,16(r4)
 2002d24:	29800417 	ldw	r6,16(r5)
 2002d28:	21c00317 	ldw	r7,12(r4)
 2002d2c:	29000317 	ldw	r4,12(r5)
 2002d30:	30800936 	bltu	r6,r2,2002d58 <__fpcmp_parts_d+0xb4>
 2002d34:	1180011e 	bne	r2,r6,2002d3c <__fpcmp_parts_d+0x98>
 2002d38:	21c00736 	bltu	r4,r7,2002d58 <__fpcmp_parts_d+0xb4>
 2002d3c:	11800236 	bltu	r2,r6,2002d48 <__fpcmp_parts_d+0xa4>
 2002d40:	3080031e 	bne	r6,r2,2002d50 <__fpcmp_parts_d+0xac>
 2002d44:	3900022e 	bgeu	r7,r4,2002d50 <__fpcmp_parts_d+0xac>
 2002d48:	183fe926 	beq	r3,zero,2002cf0 <__alt_mem_onchip_memory+0xfe001cf0>
 2002d4c:	003fec06 	br	2002d00 <__alt_mem_onchip_memory+0xfe001d00>
 2002d50:	0005883a 	mov	r2,zero
 2002d54:	f800283a 	ret
 2002d58:	183fe926 	beq	r3,zero,2002d00 <__alt_mem_onchip_memory+0xfe001d00>
 2002d5c:	003fe406 	br	2002cf0 <__alt_mem_onchip_memory+0xfe001cf0>
 2002d60:	30ffe51e 	bne	r6,r3,2002cf8 <__alt_mem_onchip_memory+0xfe001cf8>
 2002d64:	28c00117 	ldw	r3,4(r5)
 2002d68:	20800117 	ldw	r2,4(r4)
 2002d6c:	1885c83a 	sub	r2,r3,r2
 2002d70:	f800283a 	ret

02002d74 <__lshrdi3>:
 2002d74:	2005883a 	mov	r2,r4
 2002d78:	2807883a 	mov	r3,r5
 2002d7c:	30000826 	beq	r6,zero,2002da0 <__lshrdi3+0x2c>
 2002d80:	01000804 	movi	r4,32
 2002d84:	2189c83a 	sub	r4,r4,r6
 2002d88:	0100060e 	bge	zero,r4,2002da4 <__lshrdi3+0x30>
 2002d8c:	1184d83a 	srl	r2,r2,r6
 2002d90:	2908983a 	sll	r4,r5,r4
 2002d94:	298cd83a 	srl	r6,r5,r6
 2002d98:	2084b03a 	or	r2,r4,r2
 2002d9c:	3007883a 	mov	r3,r6
 2002da0:	f800283a 	ret
 2002da4:	0105c83a 	sub	r2,zero,r4
 2002da8:	000d883a 	mov	r6,zero
 2002dac:	2884d83a 	srl	r2,r5,r2
 2002db0:	3007883a 	mov	r3,r6
 2002db4:	003ffa06 	br	2002da0 <__alt_mem_onchip_memory+0xfe001da0>

02002db8 <__ashldi3>:
 2002db8:	2005883a 	mov	r2,r4
 2002dbc:	2807883a 	mov	r3,r5
 2002dc0:	30000826 	beq	r6,zero,2002de4 <__ashldi3+0x2c>
 2002dc4:	01000804 	movi	r4,32
 2002dc8:	2189c83a 	sub	r4,r4,r6
 2002dcc:	0100060e 	bge	zero,r4,2002de8 <__ashldi3+0x30>
 2002dd0:	1108d83a 	srl	r4,r2,r4
 2002dd4:	2986983a 	sll	r3,r5,r6
 2002dd8:	118c983a 	sll	r6,r2,r6
 2002ddc:	20c6b03a 	or	r3,r4,r3
 2002de0:	3005883a 	mov	r2,r6
 2002de4:	f800283a 	ret
 2002de8:	0107c83a 	sub	r3,zero,r4
 2002dec:	000d883a 	mov	r6,zero
 2002df0:	10c6983a 	sll	r3,r2,r3
 2002df4:	3005883a 	mov	r2,r6
 2002df8:	003ffa06 	br	2002de4 <__alt_mem_onchip_memory+0xfe001de4>

02002dfc <__pack_f>:
 2002dfc:	21400017 	ldw	r5,0(r4)
 2002e00:	01800044 	movi	r6,1
 2002e04:	20c00317 	ldw	r3,12(r4)
 2002e08:	21c00117 	ldw	r7,4(r4)
 2002e0c:	3140282e 	bgeu	r6,r5,2002eb0 <__pack_f+0xb4>
 2002e10:	00800104 	movi	r2,4
 2002e14:	28802326 	beq	r5,r2,2002ea4 <__pack_f+0xa8>
 2002e18:	00800084 	movi	r2,2
 2002e1c:	28800f26 	beq	r5,r2,2002e5c <__pack_f+0x60>
 2002e20:	18000e26 	beq	r3,zero,2002e5c <__pack_f+0x60>
 2002e24:	21000217 	ldw	r4,8(r4)
 2002e28:	00bfe084 	movi	r2,-126
 2002e2c:	20802616 	blt	r4,r2,2002ec8 <__pack_f+0xcc>
 2002e30:	00801fc4 	movi	r2,127
 2002e34:	11001b16 	blt	r2,r4,2002ea4 <__pack_f+0xa8>
 2002e38:	188a703a 	and	r5,r3,r2
 2002e3c:	00801004 	movi	r2,64
 2002e40:	28801126 	beq	r5,r2,2002e88 <__pack_f+0x8c>
 2002e44:	18c00fc4 	addi	r3,r3,63
 2002e48:	18001316 	blt	r3,zero,2002e98 <__pack_f+0x9c>
 2002e4c:	21001fc4 	addi	r4,r4,127
 2002e50:	180690ba 	slli	r3,r3,2
 2002e54:	1806d27a 	srli	r3,r3,9
 2002e58:	00000206 	br	2002e64 <__pack_f+0x68>
 2002e5c:	0009883a 	mov	r4,zero
 2002e60:	0007883a 	mov	r3,zero
 2002e64:	21003fcc 	andi	r4,r4,255
 2002e68:	200895fa 	slli	r4,r4,23
 2002e6c:	380a97fa 	slli	r5,r7,31
 2002e70:	00802034 	movhi	r2,128
 2002e74:	10bfffc4 	addi	r2,r2,-1
 2002e78:	1886703a 	and	r3,r3,r2
 2002e7c:	1904b03a 	or	r2,r3,r4
 2002e80:	1144b03a 	or	r2,r2,r5
 2002e84:	f800283a 	ret
 2002e88:	1880200c 	andi	r2,r3,128
 2002e8c:	103fee26 	beq	r2,zero,2002e48 <__alt_mem_onchip_memory+0xfe001e48>
 2002e90:	18c01004 	addi	r3,r3,64
 2002e94:	183fed0e 	bge	r3,zero,2002e4c <__alt_mem_onchip_memory+0xfe001e4c>
 2002e98:	1806d07a 	srli	r3,r3,1
 2002e9c:	21002004 	addi	r4,r4,128
 2002ea0:	003feb06 	br	2002e50 <__alt_mem_onchip_memory+0xfe001e50>
 2002ea4:	013fffc4 	movi	r4,-1
 2002ea8:	0007883a 	mov	r3,zero
 2002eac:	003fed06 	br	2002e64 <__alt_mem_onchip_memory+0xfe001e64>
 2002eb0:	18c00434 	orhi	r3,r3,16
 2002eb4:	00802034 	movhi	r2,128
 2002eb8:	10bfffc4 	addi	r2,r2,-1
 2002ebc:	1886703a 	and	r3,r3,r2
 2002ec0:	013fffc4 	movi	r4,-1
 2002ec4:	003fe706 	br	2002e64 <__alt_mem_onchip_memory+0xfe001e64>
 2002ec8:	1105c83a 	sub	r2,r2,r4
 2002ecc:	01000644 	movi	r4,25
 2002ed0:	20801216 	blt	r4,r2,2002f1c <__pack_f+0x120>
 2002ed4:	3088983a 	sll	r4,r6,r2
 2002ed8:	1884d83a 	srl	r2,r3,r2
 2002edc:	213fffc4 	addi	r4,r4,-1
 2002ee0:	20c6703a 	and	r3,r4,r3
 2002ee4:	1806c03a 	cmpne	r3,r3,zero
 2002ee8:	1884b03a 	or	r2,r3,r2
 2002eec:	11001fcc 	andi	r4,r2,127
 2002ef0:	00c01004 	movi	r3,64
 2002ef4:	20c00a1e 	bne	r4,r3,2002f20 <__pack_f+0x124>
 2002ef8:	10c0200c 	andi	r3,r2,128
 2002efc:	18000126 	beq	r3,zero,2002f04 <__pack_f+0x108>
 2002f00:	10801004 	addi	r2,r2,64
 2002f04:	100690ba 	slli	r3,r2,2
 2002f08:	01100034 	movhi	r4,16384
 2002f0c:	1105403a 	cmpgeu	r2,r2,r4
 2002f10:	1806d27a 	srli	r3,r3,9
 2002f14:	1009883a 	mov	r4,r2
 2002f18:	003fd206 	br	2002e64 <__alt_mem_onchip_memory+0xfe001e64>
 2002f1c:	0005883a 	mov	r2,zero
 2002f20:	10800fc4 	addi	r2,r2,63
 2002f24:	003ff706 	br	2002f04 <__alt_mem_onchip_memory+0xfe001f04>

02002f28 <_printf_r>:
 2002f28:	defffd04 	addi	sp,sp,-12
 2002f2c:	dfc00015 	stw	ra,0(sp)
 2002f30:	d9800115 	stw	r6,4(sp)
 2002f34:	d9c00215 	stw	r7,8(sp)
 2002f38:	280d883a 	mov	r6,r5
 2002f3c:	21400217 	ldw	r5,8(r4)
 2002f40:	d9c00104 	addi	r7,sp,4
 2002f44:	20031ac0 	call	20031ac <___vfprintf_internal_r>
 2002f48:	dfc00017 	ldw	ra,0(sp)
 2002f4c:	dec00304 	addi	sp,sp,12
 2002f50:	f800283a 	ret

02002f54 <printf>:
 2002f54:	defffc04 	addi	sp,sp,-16
 2002f58:	dfc00015 	stw	ra,0(sp)
 2002f5c:	d9400115 	stw	r5,4(sp)
 2002f60:	d9800215 	stw	r6,8(sp)
 2002f64:	d9c00315 	stw	r7,12(sp)
 2002f68:	008080b4 	movhi	r2,514
 2002f6c:	10811804 	addi	r2,r2,1120
 2002f70:	10800017 	ldw	r2,0(r2)
 2002f74:	200b883a 	mov	r5,r4
 2002f78:	d9800104 	addi	r6,sp,4
 2002f7c:	11000217 	ldw	r4,8(r2)
 2002f80:	2004fa40 	call	2004fa4 <__vfprintf_internal>
 2002f84:	dfc00017 	ldw	ra,0(sp)
 2002f88:	dec00404 	addi	sp,sp,16
 2002f8c:	f800283a 	ret

02002f90 <_puts_r>:
 2002f90:	defff604 	addi	sp,sp,-40
 2002f94:	dc400815 	stw	r17,32(sp)
 2002f98:	2023883a 	mov	r17,r4
 2002f9c:	2809883a 	mov	r4,r5
 2002fa0:	dc000715 	stw	r16,28(sp)
 2002fa4:	dfc00915 	stw	ra,36(sp)
 2002fa8:	2821883a 	mov	r16,r5
 2002fac:	20030ec0 	call	20030ec <strlen>
 2002fb0:	10c00044 	addi	r3,r2,1
 2002fb4:	d8800115 	stw	r2,4(sp)
 2002fb8:	89400217 	ldw	r5,8(r17)
 2002fbc:	008080b4 	movhi	r2,514
 2002fc0:	10b81404 	addi	r2,r2,-8112
 2002fc4:	d8800215 	stw	r2,8(sp)
 2002fc8:	00800044 	movi	r2,1
 2002fcc:	d8800315 	stw	r2,12(sp)
 2002fd0:	8809883a 	mov	r4,r17
 2002fd4:	00800084 	movi	r2,2
 2002fd8:	d9800404 	addi	r6,sp,16
 2002fdc:	dc000015 	stw	r16,0(sp)
 2002fe0:	d8c00615 	stw	r3,24(sp)
 2002fe4:	dec00415 	stw	sp,16(sp)
 2002fe8:	d8800515 	stw	r2,20(sp)
 2002fec:	200725c0 	call	200725c <__sfvwrite_r>
 2002ff0:	1000061e 	bne	r2,zero,200300c <_puts_r+0x7c>
 2002ff4:	00800284 	movi	r2,10
 2002ff8:	dfc00917 	ldw	ra,36(sp)
 2002ffc:	dc400817 	ldw	r17,32(sp)
 2003000:	dc000717 	ldw	r16,28(sp)
 2003004:	dec00a04 	addi	sp,sp,40
 2003008:	f800283a 	ret
 200300c:	00bfffc4 	movi	r2,-1
 2003010:	003ff906 	br	2002ff8 <__alt_mem_onchip_memory+0xfe001ff8>

02003014 <puts>:
 2003014:	008080b4 	movhi	r2,514
 2003018:	10811804 	addi	r2,r2,1120
 200301c:	200b883a 	mov	r5,r4
 2003020:	11000017 	ldw	r4,0(r2)
 2003024:	2002f901 	jmpi	2002f90 <_puts_r>

02003028 <_sprintf_r>:
 2003028:	deffe704 	addi	sp,sp,-100
 200302c:	2807883a 	mov	r3,r5
 2003030:	dfc01715 	stw	ra,92(sp)
 2003034:	d9c01815 	stw	r7,96(sp)
 2003038:	00a00034 	movhi	r2,32768
 200303c:	10bfffc4 	addi	r2,r2,-1
 2003040:	02008204 	movi	r8,520
 2003044:	d8800215 	stw	r2,8(sp)
 2003048:	d8800515 	stw	r2,20(sp)
 200304c:	d80b883a 	mov	r5,sp
 2003050:	d9c01804 	addi	r7,sp,96
 2003054:	00bfffc4 	movi	r2,-1
 2003058:	d8c00015 	stw	r3,0(sp)
 200305c:	d8c00415 	stw	r3,16(sp)
 2003060:	da00030d 	sth	r8,12(sp)
 2003064:	d880038d 	sth	r2,14(sp)
 2003068:	20031ac0 	call	20031ac <___vfprintf_internal_r>
 200306c:	d8c00017 	ldw	r3,0(sp)
 2003070:	18000005 	stb	zero,0(r3)
 2003074:	dfc01717 	ldw	ra,92(sp)
 2003078:	dec01904 	addi	sp,sp,100
 200307c:	f800283a 	ret

02003080 <sprintf>:
 2003080:	deffe604 	addi	sp,sp,-104
 2003084:	2007883a 	mov	r3,r4
 2003088:	dfc01715 	stw	ra,92(sp)
 200308c:	d9801815 	stw	r6,96(sp)
 2003090:	d9c01915 	stw	r7,100(sp)
 2003094:	008080b4 	movhi	r2,514
 2003098:	10811804 	addi	r2,r2,1120
 200309c:	11000017 	ldw	r4,0(r2)
 20030a0:	00a00034 	movhi	r2,32768
 20030a4:	10bfffc4 	addi	r2,r2,-1
 20030a8:	280d883a 	mov	r6,r5
 20030ac:	02008204 	movi	r8,520
 20030b0:	d8800215 	stw	r2,8(sp)
 20030b4:	d8800515 	stw	r2,20(sp)
 20030b8:	d80b883a 	mov	r5,sp
 20030bc:	d9c01804 	addi	r7,sp,96
 20030c0:	00bfffc4 	movi	r2,-1
 20030c4:	d8c00015 	stw	r3,0(sp)
 20030c8:	d8c00415 	stw	r3,16(sp)
 20030cc:	da00030d 	sth	r8,12(sp)
 20030d0:	d880038d 	sth	r2,14(sp)
 20030d4:	20031ac0 	call	20031ac <___vfprintf_internal_r>
 20030d8:	d8c00017 	ldw	r3,0(sp)
 20030dc:	18000005 	stb	zero,0(r3)
 20030e0:	dfc01717 	ldw	ra,92(sp)
 20030e4:	dec01a04 	addi	sp,sp,104
 20030e8:	f800283a 	ret

020030ec <strlen>:
 20030ec:	208000cc 	andi	r2,r4,3
 20030f0:	10001f1e 	bne	r2,zero,2003170 <strlen+0x84>
 20030f4:	20800017 	ldw	r2,0(r4)
 20030f8:	01ffbff4 	movhi	r7,65279
 20030fc:	39ffbfc4 	addi	r7,r7,-257
 2003100:	01a02074 	movhi	r6,32897
 2003104:	31a02004 	addi	r6,r6,-32640
 2003108:	11c7883a 	add	r3,r2,r7
 200310c:	0084303a 	nor	r2,zero,r2
 2003110:	1886703a 	and	r3,r3,r2
 2003114:	1986703a 	and	r3,r3,r6
 2003118:	2005883a 	mov	r2,r4
 200311c:	1800101e 	bne	r3,zero,2003160 <strlen+0x74>
 2003120:	10800104 	addi	r2,r2,4
 2003124:	10c00017 	ldw	r3,0(r2)
 2003128:	19cb883a 	add	r5,r3,r7
 200312c:	00c6303a 	nor	r3,zero,r3
 2003130:	28c6703a 	and	r3,r5,r3
 2003134:	1986703a 	and	r3,r3,r6
 2003138:	1800091e 	bne	r3,zero,2003160 <strlen+0x74>
 200313c:	10800104 	addi	r2,r2,4
 2003140:	10c00017 	ldw	r3,0(r2)
 2003144:	19cb883a 	add	r5,r3,r7
 2003148:	00c6303a 	nor	r3,zero,r3
 200314c:	28c6703a 	and	r3,r5,r3
 2003150:	1986703a 	and	r3,r3,r6
 2003154:	183ff226 	beq	r3,zero,2003120 <__alt_mem_onchip_memory+0xfe002120>
 2003158:	00000106 	br	2003160 <strlen+0x74>
 200315c:	10800044 	addi	r2,r2,1
 2003160:	10c00007 	ldb	r3,0(r2)
 2003164:	183ffd1e 	bne	r3,zero,200315c <__alt_mem_onchip_memory+0xfe00215c>
 2003168:	1105c83a 	sub	r2,r2,r4
 200316c:	f800283a 	ret
 2003170:	2005883a 	mov	r2,r4
 2003174:	003ffa06 	br	2003160 <__alt_mem_onchip_memory+0xfe002160>

02003178 <__sprint_r>:
 2003178:	30800217 	ldw	r2,8(r6)
 200317c:	defffe04 	addi	sp,sp,-8
 2003180:	dc000015 	stw	r16,0(sp)
 2003184:	dfc00115 	stw	ra,4(sp)
 2003188:	3021883a 	mov	r16,r6
 200318c:	10000226 	beq	r2,zero,2003198 <__sprint_r+0x20>
 2003190:	200725c0 	call	200725c <__sfvwrite_r>
 2003194:	80000215 	stw	zero,8(r16)
 2003198:	80000115 	stw	zero,4(r16)
 200319c:	dfc00117 	ldw	ra,4(sp)
 20031a0:	dc000017 	ldw	r16,0(sp)
 20031a4:	dec00204 	addi	sp,sp,8
 20031a8:	f800283a 	ret

020031ac <___vfprintf_internal_r>:
 20031ac:	defeb904 	addi	sp,sp,-1308
 20031b0:	dc013d15 	stw	r16,1268(sp)
 20031b4:	d9013015 	stw	r4,1216(sp)
 20031b8:	dfc14615 	stw	ra,1304(sp)
 20031bc:	df014515 	stw	fp,1300(sp)
 20031c0:	ddc14415 	stw	r23,1296(sp)
 20031c4:	dd814315 	stw	r22,1292(sp)
 20031c8:	dd414215 	stw	r21,1288(sp)
 20031cc:	dd014115 	stw	r20,1284(sp)
 20031d0:	dcc14015 	stw	r19,1280(sp)
 20031d4:	dc813f15 	stw	r18,1276(sp)
 20031d8:	dc413e15 	stw	r17,1272(sp)
 20031dc:	d9412915 	stw	r5,1188(sp)
 20031e0:	3021883a 	mov	r16,r6
 20031e4:	d9c12d15 	stw	r7,1204(sp)
 20031e8:	20079480 	call	2007948 <_localeconv_r>
 20031ec:	10800017 	ldw	r2,0(r2)
 20031f0:	d9013017 	ldw	r4,1216(sp)
 20031f4:	d8013315 	stw	zero,1228(sp)
 20031f8:	d8813715 	stw	r2,1244(sp)
 20031fc:	d8013415 	stw	zero,1232(sp)
 2003200:	20000226 	beq	r4,zero,200320c <___vfprintf_internal_r+0x60>
 2003204:	20800e17 	ldw	r2,56(r4)
 2003208:	10019826 	beq	r2,zero,200386c <___vfprintf_internal_r+0x6c0>
 200320c:	da012917 	ldw	r8,1188(sp)
 2003210:	4080030b 	ldhu	r2,12(r8)
 2003214:	10c0020c 	andi	r3,r2,8
 2003218:	18ffffcc 	andi	r3,r3,65535
 200321c:	18e0001c 	xori	r3,r3,32768
 2003220:	18e00004 	addi	r3,r3,-32768
 2003224:	18013a26 	beq	r3,zero,2003710 <___vfprintf_internal_r+0x564>
 2003228:	40c00417 	ldw	r3,16(r8)
 200322c:	18013826 	beq	r3,zero,2003710 <___vfprintf_internal_r+0x564>
 2003230:	1100068c 	andi	r4,r2,26
 2003234:	00c00284 	movi	r3,10
 2003238:	20c13e26 	beq	r4,r3,2003734 <___vfprintf_internal_r+0x588>
 200323c:	da010dc4 	addi	r8,sp,1079
 2003240:	d8800404 	addi	r2,sp,16
 2003244:	da012615 	stw	r8,1176(sp)
 2003248:	d8811b15 	stw	r2,1132(sp)
 200324c:	1013883a 	mov	r9,r2
 2003250:	d8812617 	ldw	r2,1176(sp)
 2003254:	da010e04 	addi	r8,sp,1080
 2003258:	dc413017 	ldw	r17,1216(sp)
 200325c:	da012715 	stw	r8,1180(sp)
 2003260:	4091c83a 	sub	r8,r8,r2
 2003264:	d8011d15 	stw	zero,1140(sp)
 2003268:	d8011c15 	stw	zero,1136(sp)
 200326c:	802b883a 	mov	r21,r16
 2003270:	d8013215 	stw	zero,1224(sp)
 2003274:	d8013615 	stw	zero,1240(sp)
 2003278:	d8013515 	stw	zero,1236(sp)
 200327c:	d8012c15 	stw	zero,1200(sp)
 2003280:	da013915 	stw	r8,1252(sp)
 2003284:	a8800007 	ldb	r2,0(r21)
 2003288:	1002ec26 	beq	r2,zero,2003e3c <___vfprintf_internal_r+0xc90>
 200328c:	00c00944 	movi	r3,37
 2003290:	a825883a 	mov	r18,r21
 2003294:	10c0021e 	bne	r2,r3,20032a0 <___vfprintf_internal_r+0xf4>
 2003298:	00001406 	br	20032ec <___vfprintf_internal_r+0x140>
 200329c:	10c00326 	beq	r2,r3,20032ac <___vfprintf_internal_r+0x100>
 20032a0:	94800044 	addi	r18,r18,1
 20032a4:	90800007 	ldb	r2,0(r18)
 20032a8:	103ffc1e 	bne	r2,zero,200329c <__alt_mem_onchip_memory+0xfe00229c>
 20032ac:	9561c83a 	sub	r16,r18,r21
 20032b0:	80000e26 	beq	r16,zero,20032ec <___vfprintf_internal_r+0x140>
 20032b4:	da011d17 	ldw	r8,1140(sp)
 20032b8:	d8c11c17 	ldw	r3,1136(sp)
 20032bc:	4d400015 	stw	r21,0(r9)
 20032c0:	4c000115 	stw	r16,4(r9)
 20032c4:	4411883a 	add	r8,r8,r16
 20032c8:	18c00044 	addi	r3,r3,1
 20032cc:	da011d15 	stw	r8,1140(sp)
 20032d0:	d8c11c15 	stw	r3,1136(sp)
 20032d4:	008001c4 	movi	r2,7
 20032d8:	10c15d16 	blt	r2,r3,2003850 <___vfprintf_internal_r+0x6a4>
 20032dc:	4a400204 	addi	r9,r9,8
 20032e0:	d8812c17 	ldw	r2,1200(sp)
 20032e4:	1405883a 	add	r2,r2,r16
 20032e8:	d8812c15 	stw	r2,1200(sp)
 20032ec:	90800007 	ldb	r2,0(r18)
 20032f0:	10013b26 	beq	r2,zero,20037e0 <___vfprintf_internal_r+0x634>
 20032f4:	95400044 	addi	r21,r18,1
 20032f8:	94800047 	ldb	r18,1(r18)
 20032fc:	d8012585 	stb	zero,1174(sp)
 2003300:	073fffc4 	movi	fp,-1
 2003304:	d8012e15 	stw	zero,1208(sp)
 2003308:	0021883a 	mov	r16,zero
 200330c:	00c01604 	movi	r3,88
 2003310:	01400244 	movi	r5,9
 2003314:	02800a84 	movi	r10,42
 2003318:	01c01b04 	movi	r7,108
 200331c:	01800ac4 	movi	r6,43
 2003320:	02c00804 	movi	r11,32
 2003324:	ad400044 	addi	r21,r21,1
 2003328:	90bff804 	addi	r2,r18,-32
 200332c:	1880092e 	bgeu	r3,r2,2003354 <___vfprintf_internal_r+0x1a8>
 2003330:	90012b26 	beq	r18,zero,20037e0 <___vfprintf_internal_r+0x634>
 2003334:	00c00044 	movi	r3,1
 2003338:	d8c12815 	stw	r3,1184(sp)
 200333c:	dc810405 	stb	r18,1040(sp)
 2003340:	d8012585 	stb	zero,1174(sp)
 2003344:	d8c12b15 	stw	r3,1196(sp)
 2003348:	dcc10404 	addi	r19,sp,1040
 200334c:	d8013115 	stw	zero,1220(sp)
 2003350:	00008806 	br	2003574 <___vfprintf_internal_r+0x3c8>
 2003354:	1085883a 	add	r2,r2,r2
 2003358:	1085883a 	add	r2,r2,r2
 200335c:	01008034 	movhi	r4,512
 2003360:	210cdc04 	addi	r4,r4,13168
 2003364:	1105883a 	add	r2,r2,r4
 2003368:	10800017 	ldw	r2,0(r2)
 200336c:	1000683a 	jmp	r2
 2003370:	02003924 	muli	r8,zero,228
 2003374:	02003330 	cmpltui	r8,zero,204
 2003378:	02003330 	cmpltui	r8,zero,204
 200337c:	02003938 	rdprs	r8,zero,228
 2003380:	02003330 	cmpltui	r8,zero,204
 2003384:	02003330 	cmpltui	r8,zero,204
 2003388:	02003330 	cmpltui	r8,zero,204
 200338c:	02003330 	cmpltui	r8,zero,204
 2003390:	02003330 	cmpltui	r8,zero,204
 2003394:	02003330 	cmpltui	r8,zero,204
 2003398:	02003a20 	cmpeqi	r8,zero,232
 200339c:	020038dc 	xori	r8,zero,227
 20033a0:	02003330 	cmpltui	r8,zero,204
 20033a4:	02003704 	movi	r8,220
 20033a8:	020038e8 	cmpgeui	r8,zero,227
 20033ac:	02003330 	cmpltui	r8,zero,204
 20033b0:	02003944 	movi	r8,229
 20033b4:	02003a44 	movi	r8,233
 20033b8:	02003a44 	movi	r8,233
 20033bc:	02003a44 	movi	r8,233
 20033c0:	02003a44 	movi	r8,233
 20033c4:	02003a44 	movi	r8,233
 20033c8:	02003a44 	movi	r8,233
 20033cc:	02003a44 	movi	r8,233
 20033d0:	02003a44 	movi	r8,233
 20033d4:	02003a44 	movi	r8,233
 20033d8:	02003330 	cmpltui	r8,zero,204
 20033dc:	02003330 	cmpltui	r8,zero,204
 20033e0:	02003330 	cmpltui	r8,zero,204
 20033e4:	02003330 	cmpltui	r8,zero,204
 20033e8:	02003330 	cmpltui	r8,zero,204
 20033ec:	02003330 	cmpltui	r8,zero,204
 20033f0:	02003330 	cmpltui	r8,zero,204
 20033f4:	02003330 	cmpltui	r8,zero,204
 20033f8:	02003330 	cmpltui	r8,zero,204
 20033fc:	02003330 	cmpltui	r8,zero,204
 2003400:	020036a0 	cmpeqi	r8,zero,218
 2003404:	02003a6c 	andhi	r8,zero,233
 2003408:	02003330 	cmpltui	r8,zero,204
 200340c:	02003a6c 	andhi	r8,zero,233
 2003410:	02003330 	cmpltui	r8,zero,204
 2003414:	02003330 	cmpltui	r8,zero,204
 2003418:	02003330 	cmpltui	r8,zero,204
 200341c:	02003330 	cmpltui	r8,zero,204
 2003420:	02003bdc 	xori	r8,zero,239
 2003424:	02003330 	cmpltui	r8,zero,204
 2003428:	02003330 	cmpltui	r8,zero,204
 200342c:	02003668 	cmpgeui	r8,zero,217
 2003430:	02003330 	cmpltui	r8,zero,204
 2003434:	02003330 	cmpltui	r8,zero,204
 2003438:	02003330 	cmpltui	r8,zero,204
 200343c:	02003330 	cmpltui	r8,zero,204
 2003440:	02003330 	cmpltui	r8,zero,204
 2003444:	020034d4 	movui	r8,211
 2003448:	02003330 	cmpltui	r8,zero,204
 200344c:	02003330 	cmpltui	r8,zero,204
 2003450:	02003950 	cmplti	r8,zero,229
 2003454:	02003330 	cmpltui	r8,zero,204
 2003458:	02003330 	cmpltui	r8,zero,204
 200345c:	02003330 	cmpltui	r8,zero,204
 2003460:	02003330 	cmpltui	r8,zero,204
 2003464:	02003330 	cmpltui	r8,zero,204
 2003468:	02003330 	cmpltui	r8,zero,204
 200346c:	02003330 	cmpltui	r8,zero,204
 2003470:	02003330 	cmpltui	r8,zero,204
 2003474:	02003330 	cmpltui	r8,zero,204
 2003478:	02003330 	cmpltui	r8,zero,204
 200347c:	020039c4 	movi	r8,231
 2003480:	020036a4 	muli	r8,zero,218
 2003484:	02003a6c 	andhi	r8,zero,233
 2003488:	02003a6c 	andhi	r8,zero,233
 200348c:	02003a6c 	andhi	r8,zero,233
 2003490:	020039a4 	muli	r8,zero,230
 2003494:	020036a4 	muli	r8,zero,218
 2003498:	02003330 	cmpltui	r8,zero,204
 200349c:	02003330 	cmpltui	r8,zero,204
 20034a0:	020039b0 	cmpltui	r8,zero,230
 20034a4:	02003330 	cmpltui	r8,zero,204
 20034a8:	020039f4 	movhi	r8,231
 20034ac:	0200366c 	andhi	r8,zero,217
 20034b0:	02003af4 	movhi	r8,235
 20034b4:	02003b40 	call	2003b4 <__reset-0x1dffc4c>
 20034b8:	02003330 	cmpltui	r8,zero,204
 20034bc:	02003b4c 	andi	r8,zero,237
 20034c0:	02003330 	cmpltui	r8,zero,204
 20034c4:	020034d8 	cmpnei	r8,zero,211
 20034c8:	02003330 	cmpltui	r8,zero,204
 20034cc:	02003330 	cmpltui	r8,zero,204
 20034d0:	02003ba8 	cmpgeui	r8,zero,238
 20034d4:	84000414 	ori	r16,r16,16
 20034d8:	8080080c 	andi	r2,r16,32
 20034dc:	1000f51e 	bne	r2,zero,20038b4 <___vfprintf_internal_r+0x708>
 20034e0:	8080040c 	andi	r2,r16,16
 20034e4:	10042c26 	beq	r2,zero,2004598 <___vfprintf_internal_r+0x13ec>
 20034e8:	da012d17 	ldw	r8,1204(sp)
 20034ec:	002d883a 	mov	r22,zero
 20034f0:	00c00044 	movi	r3,1
 20034f4:	45c00017 	ldw	r23,0(r8)
 20034f8:	42000104 	addi	r8,r8,4
 20034fc:	da012d15 	stw	r8,1204(sp)
 2003500:	b805883a 	mov	r2,r23
 2003504:	d8012585 	stb	zero,1174(sp)
 2003508:	e0000216 	blt	fp,zero,2003514 <___vfprintf_internal_r+0x368>
 200350c:	013fdfc4 	movi	r4,-129
 2003510:	8120703a 	and	r16,r16,r4
 2003514:	1002671e 	bne	r2,zero,2003eb4 <___vfprintf_internal_r+0xd08>
 2003518:	e002661e 	bne	fp,zero,2003eb4 <___vfprintf_internal_r+0xd08>
 200351c:	18c03fcc 	andi	r3,r3,255
 2003520:	1803561e 	bne	r3,zero,200427c <___vfprintf_internal_r+0x10d0>
 2003524:	8080004c 	andi	r2,r16,1
 2003528:	10035426 	beq	r2,zero,200427c <___vfprintf_internal_r+0x10d0>
 200352c:	da013917 	ldw	r8,1252(sp)
 2003530:	00800c04 	movi	r2,48
 2003534:	d8810dc5 	stb	r2,1079(sp)
 2003538:	da012b15 	stw	r8,1196(sp)
 200353c:	dcc10dc4 	addi	r19,sp,1079
 2003540:	d8812b17 	ldw	r2,1196(sp)
 2003544:	d8812815 	stw	r2,1184(sp)
 2003548:	1700010e 	bge	r2,fp,2003550 <___vfprintf_internal_r+0x3a4>
 200354c:	df012815 	stw	fp,1184(sp)
 2003550:	d8812583 	ldbu	r2,1174(sp)
 2003554:	df013115 	stw	fp,1220(sp)
 2003558:	10803fcc 	andi	r2,r2,255
 200355c:	1080201c 	xori	r2,r2,128
 2003560:	10bfe004 	addi	r2,r2,-128
 2003564:	10000326 	beq	r2,zero,2003574 <___vfprintf_internal_r+0x3c8>
 2003568:	da012817 	ldw	r8,1184(sp)
 200356c:	42000044 	addi	r8,r8,1
 2003570:	da012815 	stw	r8,1184(sp)
 2003574:	80c0008c 	andi	r3,r16,2
 2003578:	d8c12a15 	stw	r3,1192(sp)
 200357c:	18000326 	beq	r3,zero,200358c <___vfprintf_internal_r+0x3e0>
 2003580:	da012817 	ldw	r8,1184(sp)
 2003584:	42000084 	addi	r8,r8,2
 2003588:	da012815 	stw	r8,1184(sp)
 200358c:	80c0210c 	andi	r3,r16,132
 2003590:	d8c12f15 	stw	r3,1212(sp)
 2003594:	1801941e 	bne	r3,zero,2003be8 <___vfprintf_internal_r+0xa3c>
 2003598:	da012e17 	ldw	r8,1208(sp)
 200359c:	d8c12817 	ldw	r3,1184(sp)
 20035a0:	40edc83a 	sub	r22,r8,r3
 20035a4:	0581900e 	bge	zero,r22,2003be8 <___vfprintf_internal_r+0xa3c>
 20035a8:	02800404 	movi	r10,16
 20035ac:	da011d17 	ldw	r8,1140(sp)
 20035b0:	d8c11c17 	ldw	r3,1136(sp)
 20035b4:	05c080b4 	movhi	r23,514
 20035b8:	bdf82584 	addi	r23,r23,-8042
 20035bc:	5580200e 	bge	r10,r22,2003640 <___vfprintf_internal_r+0x494>
 20035c0:	dc813815 	stw	r18,1248(sp)
 20035c4:	5039883a 	mov	fp,r10
 20035c8:	b825883a 	mov	r18,r23
 20035cc:	050001c4 	movi	r20,7
 20035d0:	b02f883a 	mov	r23,r22
 20035d4:	802d883a 	mov	r22,r16
 20035d8:	dc012917 	ldw	r16,1188(sp)
 20035dc:	00000306 	br	20035ec <___vfprintf_internal_r+0x440>
 20035e0:	bdfffc04 	addi	r23,r23,-16
 20035e4:	4a400204 	addi	r9,r9,8
 20035e8:	e5c0110e 	bge	fp,r23,2003630 <___vfprintf_internal_r+0x484>
 20035ec:	4c800015 	stw	r18,0(r9)
 20035f0:	4f000115 	stw	fp,4(r9)
 20035f4:	42000404 	addi	r8,r8,16
 20035f8:	18c00044 	addi	r3,r3,1
 20035fc:	da011d15 	stw	r8,1140(sp)
 2003600:	d8c11c15 	stw	r3,1136(sp)
 2003604:	a0fff60e 	bge	r20,r3,20035e0 <__alt_mem_onchip_memory+0xfe0025e0>
 2003608:	8809883a 	mov	r4,r17
 200360c:	800b883a 	mov	r5,r16
 2003610:	d9811b04 	addi	r6,sp,1132
 2003614:	20031780 	call	2003178 <__sprint_r>
 2003618:	1000771e 	bne	r2,zero,20037f8 <___vfprintf_internal_r+0x64c>
 200361c:	bdfffc04 	addi	r23,r23,-16
 2003620:	da011d17 	ldw	r8,1140(sp)
 2003624:	d8c11c17 	ldw	r3,1136(sp)
 2003628:	da400404 	addi	r9,sp,16
 200362c:	e5ffef16 	blt	fp,r23,20035ec <__alt_mem_onchip_memory+0xfe0025ec>
 2003630:	b021883a 	mov	r16,r22
 2003634:	b82d883a 	mov	r22,r23
 2003638:	902f883a 	mov	r23,r18
 200363c:	dc813817 	ldw	r18,1248(sp)
 2003640:	4dc00015 	stw	r23,0(r9)
 2003644:	4d800115 	stw	r22,4(r9)
 2003648:	4591883a 	add	r8,r8,r22
 200364c:	18c00044 	addi	r3,r3,1
 2003650:	da011d15 	stw	r8,1140(sp)
 2003654:	d8c11c15 	stw	r3,1136(sp)
 2003658:	008001c4 	movi	r2,7
 200365c:	10c36d16 	blt	r2,r3,2004414 <___vfprintf_internal_r+0x1268>
 2003660:	4a400204 	addi	r9,r9,8
 2003664:	00016206 	br	2003bf0 <___vfprintf_internal_r+0xa44>
 2003668:	84000414 	ori	r16,r16,16
 200366c:	8080080c 	andi	r2,r16,32
 2003670:	1000801e 	bne	r2,zero,2003874 <___vfprintf_internal_r+0x6c8>
 2003674:	8080040c 	andi	r2,r16,16
 2003678:	1003da26 	beq	r2,zero,20045e4 <___vfprintf_internal_r+0x1438>
 200367c:	d8c12d17 	ldw	r3,1204(sp)
 2003680:	002d883a 	mov	r22,zero
 2003684:	1dc00017 	ldw	r23,0(r3)
 2003688:	18c00104 	addi	r3,r3,4
 200368c:	d8c12d15 	stw	r3,1204(sp)
 2003690:	b805883a 	mov	r2,r23
 2003694:	0007883a 	mov	r3,zero
 2003698:	d8012585 	stb	zero,1174(sp)
 200369c:	003f9a06 	br	2003508 <__alt_mem_onchip_memory+0xfe002508>
 20036a0:	84000414 	ori	r16,r16,16
 20036a4:	8080080c 	andi	r2,r16,32
 20036a8:	10007b1e 	bne	r2,zero,2003898 <___vfprintf_internal_r+0x6ec>
 20036ac:	8080040c 	andi	r2,r16,16
 20036b0:	1003ed26 	beq	r2,zero,2004668 <___vfprintf_internal_r+0x14bc>
 20036b4:	d9012d17 	ldw	r4,1204(sp)
 20036b8:	25c00017 	ldw	r23,0(r4)
 20036bc:	21000104 	addi	r4,r4,4
 20036c0:	d9012d15 	stw	r4,1204(sp)
 20036c4:	b82dd7fa 	srai	r22,r23,31
 20036c8:	b005883a 	mov	r2,r22
 20036cc:	1003230e 	bge	r2,zero,200435c <___vfprintf_internal_r+0x11b0>
 20036d0:	05efc83a 	sub	r23,zero,r23
 20036d4:	b804c03a 	cmpne	r2,r23,zero
 20036d8:	05adc83a 	sub	r22,zero,r22
 20036dc:	b0adc83a 	sub	r22,r22,r2
 20036e0:	00800b44 	movi	r2,45
 20036e4:	d8812585 	stb	r2,1174(sp)
 20036e8:	00c00044 	movi	r3,1
 20036ec:	bd84b03a 	or	r2,r23,r22
 20036f0:	003f8506 	br	2003508 <__alt_mem_onchip_memory+0xfe002508>
 20036f4:	da012e17 	ldw	r8,1208(sp)
 20036f8:	d8812d15 	stw	r2,1204(sp)
 20036fc:	0211c83a 	sub	r8,zero,r8
 2003700:	da012e15 	stw	r8,1208(sp)
 2003704:	84000114 	ori	r16,r16,4
 2003708:	ac800007 	ldb	r18,0(r21)
 200370c:	003f0506 	br	2003324 <__alt_mem_onchip_memory+0xfe002324>
 2003710:	d9013017 	ldw	r4,1216(sp)
 2003714:	d9412917 	ldw	r5,1188(sp)
 2003718:	2004fc80 	call	2004fc8 <__swsetup_r>
 200371c:	10003d1e 	bne	r2,zero,2003814 <___vfprintf_internal_r+0x668>
 2003720:	d8c12917 	ldw	r3,1188(sp)
 2003724:	1880030b 	ldhu	r2,12(r3)
 2003728:	00c00284 	movi	r3,10
 200372c:	1100068c 	andi	r4,r2,26
 2003730:	20fec21e 	bne	r4,r3,200323c <__alt_mem_onchip_memory+0xfe00223c>
 2003734:	d9012917 	ldw	r4,1188(sp)
 2003738:	20c0038b 	ldhu	r3,14(r4)
 200373c:	193fffcc 	andi	r4,r3,65535
 2003740:	2120001c 	xori	r4,r4,32768
 2003744:	21200004 	addi	r4,r4,-32768
 2003748:	203ebc16 	blt	r4,zero,200323c <__alt_mem_onchip_memory+0xfe00223c>
 200374c:	da012917 	ldw	r8,1188(sp)
 2003750:	d9013017 	ldw	r4,1216(sp)
 2003754:	d9c12d17 	ldw	r7,1204(sp)
 2003758:	42800717 	ldw	r10,28(r8)
 200375c:	42400917 	ldw	r9,36(r8)
 2003760:	10bfff4c 	andi	r2,r2,65533
 2003764:	02010004 	movi	r8,1024
 2003768:	d881070d 	sth	r2,1052(sp)
 200376c:	d9410404 	addi	r5,sp,1040
 2003770:	d8800404 	addi	r2,sp,16
 2003774:	800d883a 	mov	r6,r16
 2003778:	d8c1078d 	sth	r3,1054(sp)
 200377c:	da810b15 	stw	r10,1068(sp)
 2003780:	da410d15 	stw	r9,1076(sp)
 2003784:	d8810415 	stw	r2,1040(sp)
 2003788:	d8810815 	stw	r2,1056(sp)
 200378c:	da010615 	stw	r8,1048(sp)
 2003790:	da010915 	stw	r8,1060(sp)
 2003794:	d8010a15 	stw	zero,1064(sp)
 2003798:	20031ac0 	call	20031ac <___vfprintf_internal_r>
 200379c:	d8812c15 	stw	r2,1200(sp)
 20037a0:	10000416 	blt	r2,zero,20037b4 <___vfprintf_internal_r+0x608>
 20037a4:	d9013017 	ldw	r4,1216(sp)
 20037a8:	d9410404 	addi	r5,sp,1040
 20037ac:	20069600 	call	2006960 <_fflush_r>
 20037b0:	1005d81e 	bne	r2,zero,2004f14 <___vfprintf_internal_r+0x1d68>
 20037b4:	d881070b 	ldhu	r2,1052(sp)
 20037b8:	1080100c 	andi	r2,r2,64
 20037bc:	10bfffcc 	andi	r2,r2,65535
 20037c0:	10a0001c 	xori	r2,r2,32768
 20037c4:	10a00004 	addi	r2,r2,-32768
 20037c8:	10001426 	beq	r2,zero,200381c <___vfprintf_internal_r+0x670>
 20037cc:	d8c12917 	ldw	r3,1188(sp)
 20037d0:	1880030b 	ldhu	r2,12(r3)
 20037d4:	10801014 	ori	r2,r2,64
 20037d8:	1880030d 	sth	r2,12(r3)
 20037dc:	00000f06 	br	200381c <___vfprintf_internal_r+0x670>
 20037e0:	d8811d17 	ldw	r2,1140(sp)
 20037e4:	10000426 	beq	r2,zero,20037f8 <___vfprintf_internal_r+0x64c>
 20037e8:	d9013017 	ldw	r4,1216(sp)
 20037ec:	d9412917 	ldw	r5,1188(sp)
 20037f0:	d9811b04 	addi	r6,sp,1132
 20037f4:	20031780 	call	2003178 <__sprint_r>
 20037f8:	d8c12917 	ldw	r3,1188(sp)
 20037fc:	1880030b 	ldhu	r2,12(r3)
 2003800:	1080100c 	andi	r2,r2,64
 2003804:	10bfffcc 	andi	r2,r2,65535
 2003808:	10a0001c 	xori	r2,r2,32768
 200380c:	10a00004 	addi	r2,r2,-32768
 2003810:	10000226 	beq	r2,zero,200381c <___vfprintf_internal_r+0x670>
 2003814:	00bfffc4 	movi	r2,-1
 2003818:	d8812c15 	stw	r2,1200(sp)
 200381c:	d8812c17 	ldw	r2,1200(sp)
 2003820:	dfc14617 	ldw	ra,1304(sp)
 2003824:	df014517 	ldw	fp,1300(sp)
 2003828:	ddc14417 	ldw	r23,1296(sp)
 200382c:	dd814317 	ldw	r22,1292(sp)
 2003830:	dd414217 	ldw	r21,1288(sp)
 2003834:	dd014117 	ldw	r20,1284(sp)
 2003838:	dcc14017 	ldw	r19,1280(sp)
 200383c:	dc813f17 	ldw	r18,1276(sp)
 2003840:	dc413e17 	ldw	r17,1272(sp)
 2003844:	dc013d17 	ldw	r16,1268(sp)
 2003848:	dec14704 	addi	sp,sp,1308
 200384c:	f800283a 	ret
 2003850:	d9412917 	ldw	r5,1188(sp)
 2003854:	8809883a 	mov	r4,r17
 2003858:	d9811b04 	addi	r6,sp,1132
 200385c:	20031780 	call	2003178 <__sprint_r>
 2003860:	103fe51e 	bne	r2,zero,20037f8 <__alt_mem_onchip_memory+0xfe0027f8>
 2003864:	da400404 	addi	r9,sp,16
 2003868:	003e9d06 	br	20032e0 <__alt_mem_onchip_memory+0xfe0022e0>
 200386c:	2006c080 	call	2006c08 <__sinit>
 2003870:	003e6606 	br	200320c <__alt_mem_onchip_memory+0xfe00220c>
 2003874:	d8812d17 	ldw	r2,1204(sp)
 2003878:	0007883a 	mov	r3,zero
 200387c:	15c00017 	ldw	r23,0(r2)
 2003880:	15800117 	ldw	r22,4(r2)
 2003884:	10800204 	addi	r2,r2,8
 2003888:	d8812d15 	stw	r2,1204(sp)
 200388c:	d8012585 	stb	zero,1174(sp)
 2003890:	bd84b03a 	or	r2,r23,r22
 2003894:	003f1c06 	br	2003508 <__alt_mem_onchip_memory+0xfe002508>
 2003898:	d8c12d17 	ldw	r3,1204(sp)
 200389c:	18800117 	ldw	r2,4(r3)
 20038a0:	1dc00017 	ldw	r23,0(r3)
 20038a4:	18c00204 	addi	r3,r3,8
 20038a8:	d8c12d15 	stw	r3,1204(sp)
 20038ac:	102d883a 	mov	r22,r2
 20038b0:	003f8606 	br	20036cc <__alt_mem_onchip_memory+0xfe0026cc>
 20038b4:	d8c12d17 	ldw	r3,1204(sp)
 20038b8:	d9012d17 	ldw	r4,1204(sp)
 20038bc:	1dc00017 	ldw	r23,0(r3)
 20038c0:	1d800117 	ldw	r22,4(r3)
 20038c4:	21000204 	addi	r4,r4,8
 20038c8:	00c00044 	movi	r3,1
 20038cc:	d9012d15 	stw	r4,1204(sp)
 20038d0:	bd84b03a 	or	r2,r23,r22
 20038d4:	d8012585 	stb	zero,1174(sp)
 20038d8:	003f0b06 	br	2003508 <__alt_mem_onchip_memory+0xfe002508>
 20038dc:	d9812585 	stb	r6,1174(sp)
 20038e0:	ac800007 	ldb	r18,0(r21)
 20038e4:	003e8f06 	br	2003324 <__alt_mem_onchip_memory+0xfe002324>
 20038e8:	ac800007 	ldb	r18,0(r21)
 20038ec:	a9000044 	addi	r4,r21,1
 20038f0:	92857d26 	beq	r18,r10,2004ee8 <___vfprintf_internal_r+0x1d3c>
 20038f4:	90bff404 	addi	r2,r18,-48
 20038f8:	0039883a 	mov	fp,zero
 20038fc:	28800736 	bltu	r5,r2,200391c <___vfprintf_internal_r+0x770>
 2003900:	24800007 	ldb	r18,0(r4)
 2003904:	e70002a4 	muli	fp,fp,10
 2003908:	21000044 	addi	r4,r4,1
 200390c:	1739883a 	add	fp,r2,fp
 2003910:	90bff404 	addi	r2,r18,-48
 2003914:	28bffa2e 	bgeu	r5,r2,2003900 <__alt_mem_onchip_memory+0xfe002900>
 2003918:	e0044216 	blt	fp,zero,2004a24 <___vfprintf_internal_r+0x1878>
 200391c:	202b883a 	mov	r21,r4
 2003920:	003e8106 	br	2003328 <__alt_mem_onchip_memory+0xfe002328>
 2003924:	d8812587 	ldb	r2,1174(sp)
 2003928:	1003581e 	bne	r2,zero,200468c <___vfprintf_internal_r+0x14e0>
 200392c:	dac12585 	stb	r11,1174(sp)
 2003930:	ac800007 	ldb	r18,0(r21)
 2003934:	003e7b06 	br	2003324 <__alt_mem_onchip_memory+0xfe002324>
 2003938:	84000054 	ori	r16,r16,1
 200393c:	ac800007 	ldb	r18,0(r21)
 2003940:	003e7806 	br	2003324 <__alt_mem_onchip_memory+0xfe002324>
 2003944:	84002014 	ori	r16,r16,128
 2003948:	ac800007 	ldb	r18,0(r21)
 200394c:	003e7506 	br	2003324 <__alt_mem_onchip_memory+0xfe002324>
 2003950:	020080b4 	movhi	r8,514
 2003954:	42381904 	addi	r8,r8,-8092
 2003958:	da013615 	stw	r8,1240(sp)
 200395c:	8080080c 	andi	r2,r16,32
 2003960:	10009626 	beq	r2,zero,2003bbc <___vfprintf_internal_r+0xa10>
 2003964:	d8812d17 	ldw	r2,1204(sp)
 2003968:	15c00017 	ldw	r23,0(r2)
 200396c:	15800117 	ldw	r22,4(r2)
 2003970:	10800204 	addi	r2,r2,8
 2003974:	d8812d15 	stw	r2,1204(sp)
 2003978:	8080004c 	andi	r2,r16,1
 200397c:	1002ae26 	beq	r2,zero,2004438 <___vfprintf_internal_r+0x128c>
 2003980:	bd84b03a 	or	r2,r23,r22
 2003984:	10032a26 	beq	r2,zero,2004630 <___vfprintf_internal_r+0x1484>
 2003988:	00c00c04 	movi	r3,48
 200398c:	d8c12505 	stb	r3,1172(sp)
 2003990:	dc812545 	stb	r18,1173(sp)
 2003994:	84000094 	ori	r16,r16,2
 2003998:	00c00084 	movi	r3,2
 200399c:	d8012585 	stb	zero,1174(sp)
 20039a0:	003ed906 	br	2003508 <__alt_mem_onchip_memory+0xfe002508>
 20039a4:	84001014 	ori	r16,r16,64
 20039a8:	ac800007 	ldb	r18,0(r21)
 20039ac:	003e5d06 	br	2003324 <__alt_mem_onchip_memory+0xfe002324>
 20039b0:	ac800007 	ldb	r18,0(r21)
 20039b4:	a805883a 	mov	r2,r21
 20039b8:	91c43226 	beq	r18,r7,2004a84 <___vfprintf_internal_r+0x18d8>
 20039bc:	84000414 	ori	r16,r16,16
 20039c0:	003e5806 	br	2003324 <__alt_mem_onchip_memory+0xfe002324>
 20039c4:	d8c12d17 	ldw	r3,1204(sp)
 20039c8:	02000044 	movi	r8,1
 20039cc:	da012815 	stw	r8,1184(sp)
 20039d0:	18800017 	ldw	r2,0(r3)
 20039d4:	18c00104 	addi	r3,r3,4
 20039d8:	d8012585 	stb	zero,1174(sp)
 20039dc:	d8810405 	stb	r2,1040(sp)
 20039e0:	d8c12d15 	stw	r3,1204(sp)
 20039e4:	da012b15 	stw	r8,1196(sp)
 20039e8:	dcc10404 	addi	r19,sp,1040
 20039ec:	d8013115 	stw	zero,1220(sp)
 20039f0:	003ee006 	br	2003574 <__alt_mem_onchip_memory+0xfe002574>
 20039f4:	8080080c 	andi	r2,r16,32
 20039f8:	10031026 	beq	r2,zero,200463c <___vfprintf_internal_r+0x1490>
 20039fc:	d9012d17 	ldw	r4,1204(sp)
 2003a00:	da012c17 	ldw	r8,1200(sp)
 2003a04:	20800017 	ldw	r2,0(r4)
 2003a08:	4007d7fa 	srai	r3,r8,31
 2003a0c:	21000104 	addi	r4,r4,4
 2003a10:	d9012d15 	stw	r4,1204(sp)
 2003a14:	12000015 	stw	r8,0(r2)
 2003a18:	10c00115 	stw	r3,4(r2)
 2003a1c:	003e1906 	br	2003284 <__alt_mem_onchip_memory+0xfe002284>
 2003a20:	da012d17 	ldw	r8,1204(sp)
 2003a24:	d9012d17 	ldw	r4,1204(sp)
 2003a28:	42000017 	ldw	r8,0(r8)
 2003a2c:	20800104 	addi	r2,r4,4
 2003a30:	da012e15 	stw	r8,1208(sp)
 2003a34:	403f2f16 	blt	r8,zero,20036f4 <__alt_mem_onchip_memory+0xfe0026f4>
 2003a38:	d8812d15 	stw	r2,1204(sp)
 2003a3c:	ac800007 	ldb	r18,0(r21)
 2003a40:	003e3806 	br	2003324 <__alt_mem_onchip_memory+0xfe002324>
 2003a44:	0009883a 	mov	r4,zero
 2003a48:	90bff404 	addi	r2,r18,-48
 2003a4c:	ac800007 	ldb	r18,0(r21)
 2003a50:	210002a4 	muli	r4,r4,10
 2003a54:	ad400044 	addi	r21,r21,1
 2003a58:	2089883a 	add	r4,r4,r2
 2003a5c:	90bff404 	addi	r2,r18,-48
 2003a60:	28bffa2e 	bgeu	r5,r2,2003a4c <__alt_mem_onchip_memory+0xfe002a4c>
 2003a64:	d9012e15 	stw	r4,1208(sp)
 2003a68:	003e2f06 	br	2003328 <__alt_mem_onchip_memory+0xfe002328>
 2003a6c:	8080020c 	andi	r2,r16,8
 2003a70:	1002d426 	beq	r2,zero,20045c4 <___vfprintf_internal_r+0x1418>
 2003a74:	d8c12d17 	ldw	r3,1204(sp)
 2003a78:	1d800017 	ldw	r22,0(r3)
 2003a7c:	1d000117 	ldw	r20,4(r3)
 2003a80:	18c00204 	addi	r3,r3,8
 2003a84:	d8c12d15 	stw	r3,1204(sp)
 2003a88:	dd813315 	stw	r22,1228(sp)
 2003a8c:	dd013415 	stw	r20,1232(sp)
 2003a90:	b009883a 	mov	r4,r22
 2003a94:	a00b883a 	mov	r5,r20
 2003a98:	da413c15 	stw	r9,1264(sp)
 2003a9c:	2009c400 	call	2009c40 <__isinfd>
 2003aa0:	da413c17 	ldw	r9,1264(sp)
 2003aa4:	b009883a 	mov	r4,r22
 2003aa8:	a00b883a 	mov	r5,r20
 2003aac:	10035726 	beq	r2,zero,200480c <___vfprintf_internal_r+0x1660>
 2003ab0:	000d883a 	mov	r6,zero
 2003ab4:	000f883a 	mov	r7,zero
 2003ab8:	200b1900 	call	200b190 <__ltdf2>
 2003abc:	da413c17 	ldw	r9,1264(sp)
 2003ac0:	10041b16 	blt	r2,zero,2004b30 <___vfprintf_internal_r+0x1984>
 2003ac4:	d8812583 	ldbu	r2,1174(sp)
 2003ac8:	00c011c4 	movi	r3,71
 2003acc:	1c830b16 	blt	r3,r18,20046fc <___vfprintf_internal_r+0x1550>
 2003ad0:	04c080b4 	movhi	r19,514
 2003ad4:	9cf81504 	addi	r19,r19,-8108
 2003ad8:	020000c4 	movi	r8,3
 2003adc:	00ffdfc4 	movi	r3,-129
 2003ae0:	da012815 	stw	r8,1184(sp)
 2003ae4:	80e0703a 	and	r16,r16,r3
 2003ae8:	da012b15 	stw	r8,1196(sp)
 2003aec:	d8013115 	stw	zero,1220(sp)
 2003af0:	003e9906 	br	2003558 <__alt_mem_onchip_memory+0xfe002558>
 2003af4:	d8812d17 	ldw	r2,1204(sp)
 2003af8:	d8c12d17 	ldw	r3,1204(sp)
 2003afc:	020080b4 	movhi	r8,514
 2003b00:	42381e04 	addi	r8,r8,-8072
 2003b04:	15c00017 	ldw	r23,0(r2)
 2003b08:	00800c04 	movi	r2,48
 2003b0c:	18c00104 	addi	r3,r3,4
 2003b10:	d8812505 	stb	r2,1172(sp)
 2003b14:	00801e04 	movi	r2,120
 2003b18:	d8812545 	stb	r2,1173(sp)
 2003b1c:	d8c12d15 	stw	r3,1204(sp)
 2003b20:	002d883a 	mov	r22,zero
 2003b24:	84000094 	ori	r16,r16,2
 2003b28:	da013615 	stw	r8,1240(sp)
 2003b2c:	00c00084 	movi	r3,2
 2003b30:	04801e04 	movi	r18,120
 2003b34:	b805883a 	mov	r2,r23
 2003b38:	d8012585 	stb	zero,1174(sp)
 2003b3c:	003e7206 	br	2003508 <__alt_mem_onchip_memory+0xfe002508>
 2003b40:	84000814 	ori	r16,r16,32
 2003b44:	ac800007 	ldb	r18,0(r21)
 2003b48:	003df606 	br	2003324 <__alt_mem_onchip_memory+0xfe002324>
 2003b4c:	d8812d17 	ldw	r2,1204(sp)
 2003b50:	d8012585 	stb	zero,1174(sp)
 2003b54:	14c00017 	ldw	r19,0(r2)
 2003b58:	15c00104 	addi	r23,r2,4
 2003b5c:	98040126 	beq	r19,zero,2004b64 <___vfprintf_internal_r+0x19b8>
 2003b60:	9809883a 	mov	r4,r19
 2003b64:	e003dd16 	blt	fp,zero,2004adc <___vfprintf_internal_r+0x1930>
 2003b68:	000b883a 	mov	r5,zero
 2003b6c:	e00d883a 	mov	r6,fp
 2003b70:	da413c15 	stw	r9,1264(sp)
 2003b74:	20082a80 	call	20082a8 <memchr>
 2003b78:	da413c17 	ldw	r9,1264(sp)
 2003b7c:	10042e26 	beq	r2,zero,2004c38 <___vfprintf_internal_r+0x1a8c>
 2003b80:	14c5c83a 	sub	r2,r2,r19
 2003b84:	d8812b15 	stw	r2,1196(sp)
 2003b88:	e083790e 	bge	fp,r2,2004970 <___vfprintf_internal_r+0x17c4>
 2003b8c:	df012815 	stw	fp,1184(sp)
 2003b90:	e0049516 	blt	fp,zero,2004de8 <___vfprintf_internal_r+0x1c3c>
 2003b94:	d8812583 	ldbu	r2,1174(sp)
 2003b98:	df012b15 	stw	fp,1196(sp)
 2003b9c:	ddc12d15 	stw	r23,1204(sp)
 2003ba0:	d8013115 	stw	zero,1220(sp)
 2003ba4:	003e6c06 	br	2003558 <__alt_mem_onchip_memory+0xfe002558>
 2003ba8:	020080b4 	movhi	r8,514
 2003bac:	42381e04 	addi	r8,r8,-8072
 2003bb0:	da013615 	stw	r8,1240(sp)
 2003bb4:	8080080c 	andi	r2,r16,32
 2003bb8:	103f6a1e 	bne	r2,zero,2003964 <__alt_mem_onchip_memory+0xfe002964>
 2003bbc:	8080040c 	andi	r2,r16,16
 2003bc0:	10029326 	beq	r2,zero,2004610 <___vfprintf_internal_r+0x1464>
 2003bc4:	d8c12d17 	ldw	r3,1204(sp)
 2003bc8:	002d883a 	mov	r22,zero
 2003bcc:	1dc00017 	ldw	r23,0(r3)
 2003bd0:	18c00104 	addi	r3,r3,4
 2003bd4:	d8c12d15 	stw	r3,1204(sp)
 2003bd8:	003f6706 	br	2003978 <__alt_mem_onchip_memory+0xfe002978>
 2003bdc:	84000214 	ori	r16,r16,8
 2003be0:	ac800007 	ldb	r18,0(r21)
 2003be4:	003dcf06 	br	2003324 <__alt_mem_onchip_memory+0xfe002324>
 2003be8:	da011d17 	ldw	r8,1140(sp)
 2003bec:	d8c11c17 	ldw	r3,1136(sp)
 2003bf0:	d8812587 	ldb	r2,1174(sp)
 2003bf4:	10000b26 	beq	r2,zero,2003c24 <___vfprintf_internal_r+0xa78>
 2003bf8:	d8812584 	addi	r2,sp,1174
 2003bfc:	48800015 	stw	r2,0(r9)
 2003c00:	00800044 	movi	r2,1
 2003c04:	48800115 	stw	r2,4(r9)
 2003c08:	4091883a 	add	r8,r8,r2
 2003c0c:	1887883a 	add	r3,r3,r2
 2003c10:	da011d15 	stw	r8,1140(sp)
 2003c14:	d8c11c15 	stw	r3,1136(sp)
 2003c18:	008001c4 	movi	r2,7
 2003c1c:	10c18516 	blt	r2,r3,2004234 <___vfprintf_internal_r+0x1088>
 2003c20:	4a400204 	addi	r9,r9,8
 2003c24:	d9012a17 	ldw	r4,1192(sp)
 2003c28:	20000b26 	beq	r4,zero,2003c58 <___vfprintf_internal_r+0xaac>
 2003c2c:	d8812504 	addi	r2,sp,1172
 2003c30:	48800015 	stw	r2,0(r9)
 2003c34:	00800084 	movi	r2,2
 2003c38:	48800115 	stw	r2,4(r9)
 2003c3c:	4091883a 	add	r8,r8,r2
 2003c40:	18c00044 	addi	r3,r3,1
 2003c44:	da011d15 	stw	r8,1140(sp)
 2003c48:	d8c11c15 	stw	r3,1136(sp)
 2003c4c:	008001c4 	movi	r2,7
 2003c50:	10c18116 	blt	r2,r3,2004258 <___vfprintf_internal_r+0x10ac>
 2003c54:	4a400204 	addi	r9,r9,8
 2003c58:	d9012f17 	ldw	r4,1212(sp)
 2003c5c:	00802004 	movi	r2,128
 2003c60:	2080fc26 	beq	r4,r2,2004054 <___vfprintf_internal_r+0xea8>
 2003c64:	d8813117 	ldw	r2,1220(sp)
 2003c68:	d9012b17 	ldw	r4,1196(sp)
 2003c6c:	112fc83a 	sub	r23,r2,r4
 2003c70:	05c02a0e 	bge	zero,r23,2003d1c <___vfprintf_internal_r+0xb70>
 2003c74:	07000404 	movi	fp,16
 2003c78:	050080b4 	movhi	r20,514
 2003c7c:	a5382984 	addi	r20,r20,-8026
 2003c80:	e5c01d0e 	bge	fp,r23,2003cf8 <___vfprintf_internal_r+0xb4c>
 2003c84:	dc812a15 	stw	r18,1192(sp)
 2003c88:	058001c4 	movi	r22,7
 2003c8c:	a025883a 	mov	r18,r20
 2003c90:	8029883a 	mov	r20,r16
 2003c94:	dc012917 	ldw	r16,1188(sp)
 2003c98:	00000306 	br	2003ca8 <___vfprintf_internal_r+0xafc>
 2003c9c:	bdfffc04 	addi	r23,r23,-16
 2003ca0:	4a400204 	addi	r9,r9,8
 2003ca4:	e5c0110e 	bge	fp,r23,2003cec <___vfprintf_internal_r+0xb40>
 2003ca8:	4c800015 	stw	r18,0(r9)
 2003cac:	4f000115 	stw	fp,4(r9)
 2003cb0:	42000404 	addi	r8,r8,16
 2003cb4:	18c00044 	addi	r3,r3,1
 2003cb8:	da011d15 	stw	r8,1140(sp)
 2003cbc:	d8c11c15 	stw	r3,1136(sp)
 2003cc0:	b0fff60e 	bge	r22,r3,2003c9c <__alt_mem_onchip_memory+0xfe002c9c>
 2003cc4:	8809883a 	mov	r4,r17
 2003cc8:	800b883a 	mov	r5,r16
 2003ccc:	d9811b04 	addi	r6,sp,1132
 2003cd0:	20031780 	call	2003178 <__sprint_r>
 2003cd4:	103ec81e 	bne	r2,zero,20037f8 <__alt_mem_onchip_memory+0xfe0027f8>
 2003cd8:	bdfffc04 	addi	r23,r23,-16
 2003cdc:	da011d17 	ldw	r8,1140(sp)
 2003ce0:	d8c11c17 	ldw	r3,1136(sp)
 2003ce4:	da400404 	addi	r9,sp,16
 2003ce8:	e5ffef16 	blt	fp,r23,2003ca8 <__alt_mem_onchip_memory+0xfe002ca8>
 2003cec:	a021883a 	mov	r16,r20
 2003cf0:	9029883a 	mov	r20,r18
 2003cf4:	dc812a17 	ldw	r18,1192(sp)
 2003cf8:	4d000015 	stw	r20,0(r9)
 2003cfc:	4dc00115 	stw	r23,4(r9)
 2003d00:	45d1883a 	add	r8,r8,r23
 2003d04:	18c00044 	addi	r3,r3,1
 2003d08:	da011d15 	stw	r8,1140(sp)
 2003d0c:	d8c11c15 	stw	r3,1136(sp)
 2003d10:	008001c4 	movi	r2,7
 2003d14:	10c13e16 	blt	r2,r3,2004210 <___vfprintf_internal_r+0x1064>
 2003d18:	4a400204 	addi	r9,r9,8
 2003d1c:	8080400c 	andi	r2,r16,256
 2003d20:	1000831e 	bne	r2,zero,2003f30 <___vfprintf_internal_r+0xd84>
 2003d24:	d8812b17 	ldw	r2,1196(sp)
 2003d28:	4cc00015 	stw	r19,0(r9)
 2003d2c:	48800115 	stw	r2,4(r9)
 2003d30:	4091883a 	add	r8,r8,r2
 2003d34:	18c00044 	addi	r3,r3,1
 2003d38:	da011d15 	stw	r8,1140(sp)
 2003d3c:	d8c11c15 	stw	r3,1136(sp)
 2003d40:	008001c4 	movi	r2,7
 2003d44:	10c05316 	blt	r2,r3,2003e94 <___vfprintf_internal_r+0xce8>
 2003d48:	4a400204 	addi	r9,r9,8
 2003d4c:	8400010c 	andi	r16,r16,4
 2003d50:	80002e26 	beq	r16,zero,2003e0c <___vfprintf_internal_r+0xc60>
 2003d54:	d8812e17 	ldw	r2,1208(sp)
 2003d58:	d8c12817 	ldw	r3,1184(sp)
 2003d5c:	10e1c83a 	sub	r16,r2,r3
 2003d60:	04002a0e 	bge	zero,r16,2003e0c <___vfprintf_internal_r+0xc60>
 2003d64:	04800404 	movi	r18,16
 2003d68:	d8c11c17 	ldw	r3,1136(sp)
 2003d6c:	05c080b4 	movhi	r23,514
 2003d70:	bdf82584 	addi	r23,r23,-8042
 2003d74:	9400170e 	bge	r18,r16,2003dd4 <___vfprintf_internal_r+0xc28>
 2003d78:	04c001c4 	movi	r19,7
 2003d7c:	dd012917 	ldw	r20,1188(sp)
 2003d80:	00000306 	br	2003d90 <___vfprintf_internal_r+0xbe4>
 2003d84:	843ffc04 	addi	r16,r16,-16
 2003d88:	4a400204 	addi	r9,r9,8
 2003d8c:	9400110e 	bge	r18,r16,2003dd4 <___vfprintf_internal_r+0xc28>
 2003d90:	4dc00015 	stw	r23,0(r9)
 2003d94:	4c800115 	stw	r18,4(r9)
 2003d98:	42000404 	addi	r8,r8,16
 2003d9c:	18c00044 	addi	r3,r3,1
 2003da0:	da011d15 	stw	r8,1140(sp)
 2003da4:	d8c11c15 	stw	r3,1136(sp)
 2003da8:	98fff60e 	bge	r19,r3,2003d84 <__alt_mem_onchip_memory+0xfe002d84>
 2003dac:	8809883a 	mov	r4,r17
 2003db0:	a00b883a 	mov	r5,r20
 2003db4:	d9811b04 	addi	r6,sp,1132
 2003db8:	20031780 	call	2003178 <__sprint_r>
 2003dbc:	103e8e1e 	bne	r2,zero,20037f8 <__alt_mem_onchip_memory+0xfe0027f8>
 2003dc0:	843ffc04 	addi	r16,r16,-16
 2003dc4:	da011d17 	ldw	r8,1140(sp)
 2003dc8:	d8c11c17 	ldw	r3,1136(sp)
 2003dcc:	da400404 	addi	r9,sp,16
 2003dd0:	943fef16 	blt	r18,r16,2003d90 <__alt_mem_onchip_memory+0xfe002d90>
 2003dd4:	4dc00015 	stw	r23,0(r9)
 2003dd8:	4c000115 	stw	r16,4(r9)
 2003ddc:	8211883a 	add	r8,r16,r8
 2003de0:	18c00044 	addi	r3,r3,1
 2003de4:	da011d15 	stw	r8,1140(sp)
 2003de8:	d8c11c15 	stw	r3,1136(sp)
 2003dec:	008001c4 	movi	r2,7
 2003df0:	10c0060e 	bge	r2,r3,2003e0c <___vfprintf_internal_r+0xc60>
 2003df4:	d9412917 	ldw	r5,1188(sp)
 2003df8:	8809883a 	mov	r4,r17
 2003dfc:	d9811b04 	addi	r6,sp,1132
 2003e00:	20031780 	call	2003178 <__sprint_r>
 2003e04:	103e7c1e 	bne	r2,zero,20037f8 <__alt_mem_onchip_memory+0xfe0027f8>
 2003e08:	da011d17 	ldw	r8,1140(sp)
 2003e0c:	dd012817 	ldw	r20,1184(sp)
 2003e10:	d9012e17 	ldw	r4,1208(sp)
 2003e14:	a100010e 	bge	r20,r4,2003e1c <___vfprintf_internal_r+0xc70>
 2003e18:	2029883a 	mov	r20,r4
 2003e1c:	d8812c17 	ldw	r2,1200(sp)
 2003e20:	1505883a 	add	r2,r2,r20
 2003e24:	d8812c15 	stw	r2,1200(sp)
 2003e28:	4000b91e 	bne	r8,zero,2004110 <___vfprintf_internal_r+0xf64>
 2003e2c:	d8011c15 	stw	zero,1136(sp)
 2003e30:	a8800007 	ldb	r2,0(r21)
 2003e34:	da400404 	addi	r9,sp,16
 2003e38:	103d141e 	bne	r2,zero,200328c <__alt_mem_onchip_memory+0xfe00228c>
 2003e3c:	a825883a 	mov	r18,r21
 2003e40:	003d2a06 	br	20032ec <__alt_mem_onchip_memory+0xfe0022ec>
 2003e44:	d9412917 	ldw	r5,1188(sp)
 2003e48:	8809883a 	mov	r4,r17
 2003e4c:	d9811b04 	addi	r6,sp,1132
 2003e50:	20031780 	call	2003178 <__sprint_r>
 2003e54:	103e681e 	bne	r2,zero,20037f8 <__alt_mem_onchip_memory+0xfe0027f8>
 2003e58:	da011d17 	ldw	r8,1140(sp)
 2003e5c:	da400404 	addi	r9,sp,16
 2003e60:	8080004c 	andi	r2,r16,1
 2003e64:	103fb926 	beq	r2,zero,2003d4c <__alt_mem_onchip_memory+0xfe002d4c>
 2003e68:	d8c11c17 	ldw	r3,1136(sp)
 2003e6c:	d9013717 	ldw	r4,1244(sp)
 2003e70:	00800044 	movi	r2,1
 2003e74:	48800115 	stw	r2,4(r9)
 2003e78:	49000015 	stw	r4,0(r9)
 2003e7c:	4091883a 	add	r8,r8,r2
 2003e80:	1887883a 	add	r3,r3,r2
 2003e84:	da011d15 	stw	r8,1140(sp)
 2003e88:	d8c11c15 	stw	r3,1136(sp)
 2003e8c:	008001c4 	movi	r2,7
 2003e90:	10ffad0e 	bge	r2,r3,2003d48 <__alt_mem_onchip_memory+0xfe002d48>
 2003e94:	d9412917 	ldw	r5,1188(sp)
 2003e98:	8809883a 	mov	r4,r17
 2003e9c:	d9811b04 	addi	r6,sp,1132
 2003ea0:	20031780 	call	2003178 <__sprint_r>
 2003ea4:	103e541e 	bne	r2,zero,20037f8 <__alt_mem_onchip_memory+0xfe0027f8>
 2003ea8:	da400404 	addi	r9,sp,16
 2003eac:	da011d17 	ldw	r8,1140(sp)
 2003eb0:	003fa606 	br	2003d4c <__alt_mem_onchip_memory+0xfe002d4c>
 2003eb4:	18803fcc 	andi	r2,r3,255
 2003eb8:	00c00044 	movi	r3,1
 2003ebc:	10c10126 	beq	r2,r3,20042c4 <___vfprintf_internal_r+0x1118>
 2003ec0:	00c00084 	movi	r3,2
 2003ec4:	10c0f026 	beq	r2,r3,2004288 <___vfprintf_internal_r+0x10dc>
 2003ec8:	d8c10dc4 	addi	r3,sp,1079
 2003ecc:	b808d0fa 	srli	r4,r23,3
 2003ed0:	b00a977a 	slli	r5,r22,29
 2003ed4:	b02cd0fa 	srli	r22,r22,3
 2003ed8:	bdc001cc 	andi	r23,r23,7
 2003edc:	b8800c04 	addi	r2,r23,48
 2003ee0:	292eb03a 	or	r23,r5,r4
 2003ee4:	18800005 	stb	r2,0(r3)
 2003ee8:	bd88b03a 	or	r4,r23,r22
 2003eec:	1827883a 	mov	r19,r3
 2003ef0:	18ffffc4 	addi	r3,r3,-1
 2003ef4:	203ff51e 	bne	r4,zero,2003ecc <__alt_mem_onchip_memory+0xfe002ecc>
 2003ef8:	8100004c 	andi	r4,r16,1
 2003efc:	980b883a 	mov	r5,r19
 2003f00:	20000726 	beq	r4,zero,2003f20 <___vfprintf_internal_r+0xd74>
 2003f04:	10803fcc 	andi	r2,r2,255
 2003f08:	1080201c 	xori	r2,r2,128
 2003f0c:	10bfe004 	addi	r2,r2,-128
 2003f10:	01000c04 	movi	r4,48
 2003f14:	11000226 	beq	r2,r4,2003f20 <___vfprintf_internal_r+0xd74>
 2003f18:	1827883a 	mov	r19,r3
 2003f1c:	293fffc5 	stb	r4,-1(r5)
 2003f20:	d8812717 	ldw	r2,1180(sp)
 2003f24:	14c5c83a 	sub	r2,r2,r19
 2003f28:	d8812b15 	stw	r2,1196(sp)
 2003f2c:	003d8406 	br	2003540 <__alt_mem_onchip_memory+0xfe002540>
 2003f30:	00801944 	movi	r2,101
 2003f34:	14807c0e 	bge	r2,r18,2004128 <___vfprintf_internal_r+0xf7c>
 2003f38:	d9013317 	ldw	r4,1228(sp)
 2003f3c:	d9413417 	ldw	r5,1232(sp)
 2003f40:	000d883a 	mov	r6,zero
 2003f44:	000f883a 	mov	r7,zero
 2003f48:	d8c13b15 	stw	r3,1260(sp)
 2003f4c:	da013a15 	stw	r8,1256(sp)
 2003f50:	da413c15 	stw	r9,1264(sp)
 2003f54:	200b0d00 	call	200b0d0 <__nedf2>
 2003f58:	d8c13b17 	ldw	r3,1260(sp)
 2003f5c:	da013a17 	ldw	r8,1256(sp)
 2003f60:	da413c17 	ldw	r9,1264(sp)
 2003f64:	1001001e 	bne	r2,zero,2004368 <___vfprintf_internal_r+0x11bc>
 2003f68:	008080b4 	movhi	r2,514
 2003f6c:	10b82504 	addi	r2,r2,-8044
 2003f70:	48800015 	stw	r2,0(r9)
 2003f74:	00800044 	movi	r2,1
 2003f78:	48800115 	stw	r2,4(r9)
 2003f7c:	4091883a 	add	r8,r8,r2
 2003f80:	1887883a 	add	r3,r3,r2
 2003f84:	da011d15 	stw	r8,1140(sp)
 2003f88:	d8c11c15 	stw	r3,1136(sp)
 2003f8c:	008001c4 	movi	r2,7
 2003f90:	10c1dd16 	blt	r2,r3,2004708 <___vfprintf_internal_r+0x155c>
 2003f94:	4a400204 	addi	r9,r9,8
 2003f98:	d8812417 	ldw	r2,1168(sp)
 2003f9c:	d8c13217 	ldw	r3,1224(sp)
 2003fa0:	10c00216 	blt	r2,r3,2003fac <___vfprintf_internal_r+0xe00>
 2003fa4:	8080004c 	andi	r2,r16,1
 2003fa8:	103f6826 	beq	r2,zero,2003d4c <__alt_mem_onchip_memory+0xfe002d4c>
 2003fac:	d8c11c17 	ldw	r3,1136(sp)
 2003fb0:	d9013717 	ldw	r4,1244(sp)
 2003fb4:	00800044 	movi	r2,1
 2003fb8:	48800115 	stw	r2,4(r9)
 2003fbc:	49000015 	stw	r4,0(r9)
 2003fc0:	4091883a 	add	r8,r8,r2
 2003fc4:	1887883a 	add	r3,r3,r2
 2003fc8:	da011d15 	stw	r8,1140(sp)
 2003fcc:	d8c11c15 	stw	r3,1136(sp)
 2003fd0:	008001c4 	movi	r2,7
 2003fd4:	10c2af16 	blt	r2,r3,2004a94 <___vfprintf_internal_r+0x18e8>
 2003fd8:	4a400204 	addi	r9,r9,8
 2003fdc:	d8813217 	ldw	r2,1224(sp)
 2003fe0:	14bfffc4 	addi	r18,r2,-1
 2003fe4:	04bf590e 	bge	zero,r18,2003d4c <__alt_mem_onchip_memory+0xfe002d4c>
 2003fe8:	04c00404 	movi	r19,16
 2003fec:	d8c11c17 	ldw	r3,1136(sp)
 2003ff0:	050080b4 	movhi	r20,514
 2003ff4:	a5382984 	addi	r20,r20,-8026
 2003ff8:	9c81630e 	bge	r19,r18,2004588 <___vfprintf_internal_r+0x13dc>
 2003ffc:	058001c4 	movi	r22,7
 2004000:	ddc12917 	ldw	r23,1188(sp)
 2004004:	00000306 	br	2004014 <___vfprintf_internal_r+0xe68>
 2004008:	4a400204 	addi	r9,r9,8
 200400c:	94bffc04 	addi	r18,r18,-16
 2004010:	9c815d0e 	bge	r19,r18,2004588 <___vfprintf_internal_r+0x13dc>
 2004014:	4d000015 	stw	r20,0(r9)
 2004018:	4cc00115 	stw	r19,4(r9)
 200401c:	42000404 	addi	r8,r8,16
 2004020:	18c00044 	addi	r3,r3,1
 2004024:	da011d15 	stw	r8,1140(sp)
 2004028:	d8c11c15 	stw	r3,1136(sp)
 200402c:	b0fff60e 	bge	r22,r3,2004008 <__alt_mem_onchip_memory+0xfe003008>
 2004030:	8809883a 	mov	r4,r17
 2004034:	b80b883a 	mov	r5,r23
 2004038:	d9811b04 	addi	r6,sp,1132
 200403c:	20031780 	call	2003178 <__sprint_r>
 2004040:	103ded1e 	bne	r2,zero,20037f8 <__alt_mem_onchip_memory+0xfe0027f8>
 2004044:	da011d17 	ldw	r8,1140(sp)
 2004048:	d8c11c17 	ldw	r3,1136(sp)
 200404c:	da400404 	addi	r9,sp,16
 2004050:	003fee06 	br	200400c <__alt_mem_onchip_memory+0xfe00300c>
 2004054:	d8812e17 	ldw	r2,1208(sp)
 2004058:	d9012817 	ldw	r4,1184(sp)
 200405c:	112fc83a 	sub	r23,r2,r4
 2004060:	05ff000e 	bge	zero,r23,2003c64 <__alt_mem_onchip_memory+0xfe002c64>
 2004064:	07000404 	movi	fp,16
 2004068:	050080b4 	movhi	r20,514
 200406c:	a5382984 	addi	r20,r20,-8026
 2004070:	e5c01d0e 	bge	fp,r23,20040e8 <___vfprintf_internal_r+0xf3c>
 2004074:	dc812a15 	stw	r18,1192(sp)
 2004078:	058001c4 	movi	r22,7
 200407c:	a025883a 	mov	r18,r20
 2004080:	8029883a 	mov	r20,r16
 2004084:	dc012917 	ldw	r16,1188(sp)
 2004088:	00000306 	br	2004098 <___vfprintf_internal_r+0xeec>
 200408c:	bdfffc04 	addi	r23,r23,-16
 2004090:	4a400204 	addi	r9,r9,8
 2004094:	e5c0110e 	bge	fp,r23,20040dc <___vfprintf_internal_r+0xf30>
 2004098:	4c800015 	stw	r18,0(r9)
 200409c:	4f000115 	stw	fp,4(r9)
 20040a0:	42000404 	addi	r8,r8,16
 20040a4:	18c00044 	addi	r3,r3,1
 20040a8:	da011d15 	stw	r8,1140(sp)
 20040ac:	d8c11c15 	stw	r3,1136(sp)
 20040b0:	b0fff60e 	bge	r22,r3,200408c <__alt_mem_onchip_memory+0xfe00308c>
 20040b4:	8809883a 	mov	r4,r17
 20040b8:	800b883a 	mov	r5,r16
 20040bc:	d9811b04 	addi	r6,sp,1132
 20040c0:	20031780 	call	2003178 <__sprint_r>
 20040c4:	103dcc1e 	bne	r2,zero,20037f8 <__alt_mem_onchip_memory+0xfe0027f8>
 20040c8:	bdfffc04 	addi	r23,r23,-16
 20040cc:	da011d17 	ldw	r8,1140(sp)
 20040d0:	d8c11c17 	ldw	r3,1136(sp)
 20040d4:	da400404 	addi	r9,sp,16
 20040d8:	e5ffef16 	blt	fp,r23,2004098 <__alt_mem_onchip_memory+0xfe003098>
 20040dc:	a021883a 	mov	r16,r20
 20040e0:	9029883a 	mov	r20,r18
 20040e4:	dc812a17 	ldw	r18,1192(sp)
 20040e8:	4d000015 	stw	r20,0(r9)
 20040ec:	4dc00115 	stw	r23,4(r9)
 20040f0:	45d1883a 	add	r8,r8,r23
 20040f4:	18c00044 	addi	r3,r3,1
 20040f8:	da011d15 	stw	r8,1140(sp)
 20040fc:	d8c11c15 	stw	r3,1136(sp)
 2004100:	008001c4 	movi	r2,7
 2004104:	10c11716 	blt	r2,r3,2004564 <___vfprintf_internal_r+0x13b8>
 2004108:	4a400204 	addi	r9,r9,8
 200410c:	003ed506 	br	2003c64 <__alt_mem_onchip_memory+0xfe002c64>
 2004110:	d9412917 	ldw	r5,1188(sp)
 2004114:	8809883a 	mov	r4,r17
 2004118:	d9811b04 	addi	r6,sp,1132
 200411c:	20031780 	call	2003178 <__sprint_r>
 2004120:	103f4226 	beq	r2,zero,2003e2c <__alt_mem_onchip_memory+0xfe002e2c>
 2004124:	003db406 	br	20037f8 <__alt_mem_onchip_memory+0xfe0027f8>
 2004128:	d9013217 	ldw	r4,1224(sp)
 200412c:	00800044 	movi	r2,1
 2004130:	4cc00015 	stw	r19,0(r9)
 2004134:	1100e10e 	bge	r2,r4,20044bc <___vfprintf_internal_r+0x1310>
 2004138:	00800044 	movi	r2,1
 200413c:	48800115 	stw	r2,4(r9)
 2004140:	4091883a 	add	r8,r8,r2
 2004144:	1887883a 	add	r3,r3,r2
 2004148:	da011d15 	stw	r8,1140(sp)
 200414c:	d8c11c15 	stw	r3,1136(sp)
 2004150:	008001c4 	movi	r2,7
 2004154:	10c0ed16 	blt	r2,r3,200450c <___vfprintf_internal_r+0x1360>
 2004158:	4a400204 	addi	r9,r9,8
 200415c:	d8813717 	ldw	r2,1244(sp)
 2004160:	48800015 	stw	r2,0(r9)
 2004164:	00800044 	movi	r2,1
 2004168:	48800115 	stw	r2,4(r9)
 200416c:	4091883a 	add	r8,r8,r2
 2004170:	1887883a 	add	r3,r3,r2
 2004174:	da011d15 	stw	r8,1140(sp)
 2004178:	d8c11c15 	stw	r3,1136(sp)
 200417c:	008001c4 	movi	r2,7
 2004180:	10c0eb16 	blt	r2,r3,2004530 <___vfprintf_internal_r+0x1384>
 2004184:	4c800204 	addi	r18,r9,8
 2004188:	d9013317 	ldw	r4,1228(sp)
 200418c:	d9413417 	ldw	r5,1232(sp)
 2004190:	000d883a 	mov	r6,zero
 2004194:	000f883a 	mov	r7,zero
 2004198:	d8c13b15 	stw	r3,1260(sp)
 200419c:	da013a15 	stw	r8,1256(sp)
 20041a0:	200b0740 	call	200b074 <__eqdf2>
 20041a4:	d8c13b17 	ldw	r3,1260(sp)
 20041a8:	da013a17 	ldw	r8,1256(sp)
 20041ac:	1000a626 	beq	r2,zero,2004448 <___vfprintf_internal_r+0x129c>
 20041b0:	d9013217 	ldw	r4,1224(sp)
 20041b4:	9cc00044 	addi	r19,r19,1
 20041b8:	94c00015 	stw	r19,0(r18)
 20041bc:	20bfffc4 	addi	r2,r4,-1
 20041c0:	90800115 	stw	r2,4(r18)
 20041c4:	4091883a 	add	r8,r8,r2
 20041c8:	18c00044 	addi	r3,r3,1
 20041cc:	da011d15 	stw	r8,1140(sp)
 20041d0:	d8c11c15 	stw	r3,1136(sp)
 20041d4:	008001c4 	movi	r2,7
 20041d8:	10c0c316 	blt	r2,r3,20044e8 <___vfprintf_internal_r+0x133c>
 20041dc:	94800204 	addi	r18,r18,8
 20041e0:	d9013517 	ldw	r4,1236(sp)
 20041e4:	d8811fc4 	addi	r2,sp,1151
 20041e8:	90800015 	stw	r2,0(r18)
 20041ec:	91000115 	stw	r4,4(r18)
 20041f0:	4111883a 	add	r8,r8,r4
 20041f4:	18c00044 	addi	r3,r3,1
 20041f8:	da011d15 	stw	r8,1140(sp)
 20041fc:	d8c11c15 	stw	r3,1136(sp)
 2004200:	008001c4 	movi	r2,7
 2004204:	10ff2316 	blt	r2,r3,2003e94 <__alt_mem_onchip_memory+0xfe002e94>
 2004208:	92400204 	addi	r9,r18,8
 200420c:	003ecf06 	br	2003d4c <__alt_mem_onchip_memory+0xfe002d4c>
 2004210:	d9412917 	ldw	r5,1188(sp)
 2004214:	8809883a 	mov	r4,r17
 2004218:	d9811b04 	addi	r6,sp,1132
 200421c:	20031780 	call	2003178 <__sprint_r>
 2004220:	103d751e 	bne	r2,zero,20037f8 <__alt_mem_onchip_memory+0xfe0027f8>
 2004224:	da011d17 	ldw	r8,1140(sp)
 2004228:	d8c11c17 	ldw	r3,1136(sp)
 200422c:	da400404 	addi	r9,sp,16
 2004230:	003eba06 	br	2003d1c <__alt_mem_onchip_memory+0xfe002d1c>
 2004234:	d9412917 	ldw	r5,1188(sp)
 2004238:	8809883a 	mov	r4,r17
 200423c:	d9811b04 	addi	r6,sp,1132
 2004240:	20031780 	call	2003178 <__sprint_r>
 2004244:	103d6c1e 	bne	r2,zero,20037f8 <__alt_mem_onchip_memory+0xfe0027f8>
 2004248:	da011d17 	ldw	r8,1140(sp)
 200424c:	d8c11c17 	ldw	r3,1136(sp)
 2004250:	da400404 	addi	r9,sp,16
 2004254:	003e7306 	br	2003c24 <__alt_mem_onchip_memory+0xfe002c24>
 2004258:	d9412917 	ldw	r5,1188(sp)
 200425c:	8809883a 	mov	r4,r17
 2004260:	d9811b04 	addi	r6,sp,1132
 2004264:	20031780 	call	2003178 <__sprint_r>
 2004268:	103d631e 	bne	r2,zero,20037f8 <__alt_mem_onchip_memory+0xfe0027f8>
 200426c:	da011d17 	ldw	r8,1140(sp)
 2004270:	d8c11c17 	ldw	r3,1136(sp)
 2004274:	da400404 	addi	r9,sp,16
 2004278:	003e7706 	br	2003c58 <__alt_mem_onchip_memory+0xfe002c58>
 200427c:	d8012b15 	stw	zero,1196(sp)
 2004280:	dcc10e04 	addi	r19,sp,1080
 2004284:	003cae06 	br	2003540 <__alt_mem_onchip_memory+0xfe002540>
 2004288:	d9413617 	ldw	r5,1240(sp)
 200428c:	d8810dc4 	addi	r2,sp,1079
 2004290:	b8c003cc 	andi	r3,r23,15
 2004294:	b008973a 	slli	r4,r22,28
 2004298:	28c7883a 	add	r3,r5,r3
 200429c:	b82ed13a 	srli	r23,r23,4
 20042a0:	18c00003 	ldbu	r3,0(r3)
 20042a4:	b02cd13a 	srli	r22,r22,4
 20042a8:	25eeb03a 	or	r23,r4,r23
 20042ac:	10c00005 	stb	r3,0(r2)
 20042b0:	bd86b03a 	or	r3,r23,r22
 20042b4:	1027883a 	mov	r19,r2
 20042b8:	10bfffc4 	addi	r2,r2,-1
 20042bc:	183ff41e 	bne	r3,zero,2004290 <__alt_mem_onchip_memory+0xfe003290>
 20042c0:	003f1706 	br	2003f20 <__alt_mem_onchip_memory+0xfe002f20>
 20042c4:	b0025826 	beq	r22,zero,2004c28 <___vfprintf_internal_r+0x1a7c>
 20042c8:	b807883a 	mov	r3,r23
 20042cc:	d8810dc4 	addi	r2,sp,1079
 20042d0:	882f883a 	mov	r23,r17
 20042d4:	04c00244 	movi	r19,9
 20042d8:	8023883a 	mov	r17,r16
 20042dc:	da412815 	stw	r9,1184(sp)
 20042e0:	1821883a 	mov	r16,r3
 20042e4:	8009883a 	mov	r4,r16
 20042e8:	b00b883a 	mov	r5,r22
 20042ec:	01800284 	movi	r6,10
 20042f0:	000f883a 	mov	r7,zero
 20042f4:	1029883a 	mov	r20,r2
 20042f8:	200a9340 	call	200a934 <__umoddi3>
 20042fc:	10800c04 	addi	r2,r2,48
 2004300:	8009883a 	mov	r4,r16
 2004304:	b00b883a 	mov	r5,r22
 2004308:	a0800005 	stb	r2,0(r20)
 200430c:	01800284 	movi	r6,10
 2004310:	000f883a 	mov	r7,zero
 2004314:	200a36c0 	call	200a36c <__udivdi3>
 2004318:	1021883a 	mov	r16,r2
 200431c:	182d883a 	mov	r22,r3
 2004320:	a0bfffc4 	addi	r2,r20,-1
 2004324:	183fef1e 	bne	r3,zero,20042e4 <__alt_mem_onchip_memory+0xfe0032e4>
 2004328:	9c3fee36 	bltu	r19,r16,20042e4 <__alt_mem_onchip_memory+0xfe0032e4>
 200432c:	da412817 	ldw	r9,1184(sp)
 2004330:	8005883a 	mov	r2,r16
 2004334:	8821883a 	mov	r16,r17
 2004338:	b823883a 	mov	r17,r23
 200433c:	102f883a 	mov	r23,r2
 2004340:	d8812717 	ldw	r2,1180(sp)
 2004344:	a4ffffc4 	addi	r19,r20,-1
 2004348:	bdc00c04 	addi	r23,r23,48
 200434c:	14c5c83a 	sub	r2,r2,r19
 2004350:	a5ffffc5 	stb	r23,-1(r20)
 2004354:	d8812b15 	stw	r2,1196(sp)
 2004358:	003c7906 	br	2003540 <__alt_mem_onchip_memory+0xfe002540>
 200435c:	00c00044 	movi	r3,1
 2004360:	bd84b03a 	or	r2,r23,r22
 2004364:	003c6806 	br	2003508 <__alt_mem_onchip_memory+0xfe002508>
 2004368:	dc812417 	ldw	r18,1168(sp)
 200436c:	0480ee0e 	bge	zero,r18,2004728 <___vfprintf_internal_r+0x157c>
 2004370:	d9013217 	ldw	r4,1224(sp)
 2004374:	4cc00015 	stw	r19,0(r9)
 2004378:	9100c616 	blt	r18,r4,2004694 <___vfprintf_internal_r+0x14e8>
 200437c:	49000115 	stw	r4,4(r9)
 2004380:	4111883a 	add	r8,r8,r4
 2004384:	18c00044 	addi	r3,r3,1
 2004388:	da011d15 	stw	r8,1140(sp)
 200438c:	d8c11c15 	stw	r3,1136(sp)
 2004390:	008001c4 	movi	r2,7
 2004394:	10c20916 	blt	r2,r3,2004bbc <___vfprintf_internal_r+0x1a10>
 2004398:	4a400204 	addi	r9,r9,8
 200439c:	d8813217 	ldw	r2,1224(sp)
 20043a0:	90a5c83a 	sub	r18,r18,r2
 20043a4:	04beae0e 	bge	zero,r18,2003e60 <__alt_mem_onchip_memory+0xfe002e60>
 20043a8:	04c00404 	movi	r19,16
 20043ac:	d8c11c17 	ldw	r3,1136(sp)
 20043b0:	050080b4 	movhi	r20,514
 20043b4:	a5382984 	addi	r20,r20,-8026
 20043b8:	9c81be0e 	bge	r19,r18,2004ab4 <___vfprintf_internal_r+0x1908>
 20043bc:	058001c4 	movi	r22,7
 20043c0:	ddc12917 	ldw	r23,1188(sp)
 20043c4:	00000306 	br	20043d4 <___vfprintf_internal_r+0x1228>
 20043c8:	4a400204 	addi	r9,r9,8
 20043cc:	94bffc04 	addi	r18,r18,-16
 20043d0:	9c81b80e 	bge	r19,r18,2004ab4 <___vfprintf_internal_r+0x1908>
 20043d4:	4d000015 	stw	r20,0(r9)
 20043d8:	4cc00115 	stw	r19,4(r9)
 20043dc:	42000404 	addi	r8,r8,16
 20043e0:	18c00044 	addi	r3,r3,1
 20043e4:	da011d15 	stw	r8,1140(sp)
 20043e8:	d8c11c15 	stw	r3,1136(sp)
 20043ec:	b0fff60e 	bge	r22,r3,20043c8 <__alt_mem_onchip_memory+0xfe0033c8>
 20043f0:	8809883a 	mov	r4,r17
 20043f4:	b80b883a 	mov	r5,r23
 20043f8:	d9811b04 	addi	r6,sp,1132
 20043fc:	20031780 	call	2003178 <__sprint_r>
 2004400:	103cfd1e 	bne	r2,zero,20037f8 <__alt_mem_onchip_memory+0xfe0027f8>
 2004404:	da011d17 	ldw	r8,1140(sp)
 2004408:	d8c11c17 	ldw	r3,1136(sp)
 200440c:	da400404 	addi	r9,sp,16
 2004410:	003fee06 	br	20043cc <__alt_mem_onchip_memory+0xfe0033cc>
 2004414:	d9412917 	ldw	r5,1188(sp)
 2004418:	8809883a 	mov	r4,r17
 200441c:	d9811b04 	addi	r6,sp,1132
 2004420:	20031780 	call	2003178 <__sprint_r>
 2004424:	103cf41e 	bne	r2,zero,20037f8 <__alt_mem_onchip_memory+0xfe0027f8>
 2004428:	da011d17 	ldw	r8,1140(sp)
 200442c:	d8c11c17 	ldw	r3,1136(sp)
 2004430:	da400404 	addi	r9,sp,16
 2004434:	003dee06 	br	2003bf0 <__alt_mem_onchip_memory+0xfe002bf0>
 2004438:	00c00084 	movi	r3,2
 200443c:	bd84b03a 	or	r2,r23,r22
 2004440:	d8012585 	stb	zero,1174(sp)
 2004444:	003c3006 	br	2003508 <__alt_mem_onchip_memory+0xfe002508>
 2004448:	d8813217 	ldw	r2,1224(sp)
 200444c:	14ffffc4 	addi	r19,r2,-1
 2004450:	04ff630e 	bge	zero,r19,20041e0 <__alt_mem_onchip_memory+0xfe0031e0>
 2004454:	05800404 	movi	r22,16
 2004458:	050080b4 	movhi	r20,514
 200445c:	a5382984 	addi	r20,r20,-8026
 2004460:	b4c03c0e 	bge	r22,r19,2004554 <___vfprintf_internal_r+0x13a8>
 2004464:	05c001c4 	movi	r23,7
 2004468:	df012917 	ldw	fp,1188(sp)
 200446c:	00000306 	br	200447c <___vfprintf_internal_r+0x12d0>
 2004470:	94800204 	addi	r18,r18,8
 2004474:	9cfffc04 	addi	r19,r19,-16
 2004478:	b4c0360e 	bge	r22,r19,2004554 <___vfprintf_internal_r+0x13a8>
 200447c:	95000015 	stw	r20,0(r18)
 2004480:	95800115 	stw	r22,4(r18)
 2004484:	42000404 	addi	r8,r8,16
 2004488:	18c00044 	addi	r3,r3,1
 200448c:	da011d15 	stw	r8,1140(sp)
 2004490:	d8c11c15 	stw	r3,1136(sp)
 2004494:	b8fff60e 	bge	r23,r3,2004470 <__alt_mem_onchip_memory+0xfe003470>
 2004498:	8809883a 	mov	r4,r17
 200449c:	e00b883a 	mov	r5,fp
 20044a0:	d9811b04 	addi	r6,sp,1132
 20044a4:	20031780 	call	2003178 <__sprint_r>
 20044a8:	103cd31e 	bne	r2,zero,20037f8 <__alt_mem_onchip_memory+0xfe0027f8>
 20044ac:	da011d17 	ldw	r8,1140(sp)
 20044b0:	d8c11c17 	ldw	r3,1136(sp)
 20044b4:	dc800404 	addi	r18,sp,16
 20044b8:	003fee06 	br	2004474 <__alt_mem_onchip_memory+0xfe003474>
 20044bc:	8088703a 	and	r4,r16,r2
 20044c0:	203f1d1e 	bne	r4,zero,2004138 <__alt_mem_onchip_memory+0xfe003138>
 20044c4:	48800115 	stw	r2,4(r9)
 20044c8:	42000044 	addi	r8,r8,1
 20044cc:	18c00044 	addi	r3,r3,1
 20044d0:	da011d15 	stw	r8,1140(sp)
 20044d4:	d8c11c15 	stw	r3,1136(sp)
 20044d8:	008001c4 	movi	r2,7
 20044dc:	10c00216 	blt	r2,r3,20044e8 <___vfprintf_internal_r+0x133c>
 20044e0:	4c800204 	addi	r18,r9,8
 20044e4:	003f3e06 	br	20041e0 <__alt_mem_onchip_memory+0xfe0031e0>
 20044e8:	d9412917 	ldw	r5,1188(sp)
 20044ec:	8809883a 	mov	r4,r17
 20044f0:	d9811b04 	addi	r6,sp,1132
 20044f4:	20031780 	call	2003178 <__sprint_r>
 20044f8:	103cbf1e 	bne	r2,zero,20037f8 <__alt_mem_onchip_memory+0xfe0027f8>
 20044fc:	dc800404 	addi	r18,sp,16
 2004500:	da011d17 	ldw	r8,1140(sp)
 2004504:	d8c11c17 	ldw	r3,1136(sp)
 2004508:	003f3506 	br	20041e0 <__alt_mem_onchip_memory+0xfe0031e0>
 200450c:	d9412917 	ldw	r5,1188(sp)
 2004510:	8809883a 	mov	r4,r17
 2004514:	d9811b04 	addi	r6,sp,1132
 2004518:	20031780 	call	2003178 <__sprint_r>
 200451c:	103cb61e 	bne	r2,zero,20037f8 <__alt_mem_onchip_memory+0xfe0027f8>
 2004520:	da011d17 	ldw	r8,1140(sp)
 2004524:	d8c11c17 	ldw	r3,1136(sp)
 2004528:	da400404 	addi	r9,sp,16
 200452c:	003f0b06 	br	200415c <__alt_mem_onchip_memory+0xfe00315c>
 2004530:	d9412917 	ldw	r5,1188(sp)
 2004534:	8809883a 	mov	r4,r17
 2004538:	d9811b04 	addi	r6,sp,1132
 200453c:	20031780 	call	2003178 <__sprint_r>
 2004540:	103cad1e 	bne	r2,zero,20037f8 <__alt_mem_onchip_memory+0xfe0027f8>
 2004544:	da011d17 	ldw	r8,1140(sp)
 2004548:	d8c11c17 	ldw	r3,1136(sp)
 200454c:	dc800404 	addi	r18,sp,16
 2004550:	003f0d06 	br	2004188 <__alt_mem_onchip_memory+0xfe003188>
 2004554:	95000015 	stw	r20,0(r18)
 2004558:	94c00115 	stw	r19,4(r18)
 200455c:	44d1883a 	add	r8,r8,r19
 2004560:	003f1906 	br	20041c8 <__alt_mem_onchip_memory+0xfe0031c8>
 2004564:	d9412917 	ldw	r5,1188(sp)
 2004568:	8809883a 	mov	r4,r17
 200456c:	d9811b04 	addi	r6,sp,1132
 2004570:	20031780 	call	2003178 <__sprint_r>
 2004574:	103ca01e 	bne	r2,zero,20037f8 <__alt_mem_onchip_memory+0xfe0027f8>
 2004578:	da011d17 	ldw	r8,1140(sp)
 200457c:	d8c11c17 	ldw	r3,1136(sp)
 2004580:	da400404 	addi	r9,sp,16
 2004584:	003db706 	br	2003c64 <__alt_mem_onchip_memory+0xfe002c64>
 2004588:	4d000015 	stw	r20,0(r9)
 200458c:	4c800115 	stw	r18,4(r9)
 2004590:	4491883a 	add	r8,r8,r18
 2004594:	003de706 	br	2003d34 <__alt_mem_onchip_memory+0xfe002d34>
 2004598:	8080100c 	andi	r2,r16,64
 200459c:	10010226 	beq	r2,zero,20049a8 <___vfprintf_internal_r+0x17fc>
 20045a0:	d8812d17 	ldw	r2,1204(sp)
 20045a4:	002d883a 	mov	r22,zero
 20045a8:	00c00044 	movi	r3,1
 20045ac:	15c0000b 	ldhu	r23,0(r2)
 20045b0:	10800104 	addi	r2,r2,4
 20045b4:	d8812d15 	stw	r2,1204(sp)
 20045b8:	d8012585 	stb	zero,1174(sp)
 20045bc:	b805883a 	mov	r2,r23
 20045c0:	003bd106 	br	2003508 <__alt_mem_onchip_memory+0xfe002508>
 20045c4:	d9012d17 	ldw	r4,1204(sp)
 20045c8:	25800017 	ldw	r22,0(r4)
 20045cc:	25000117 	ldw	r20,4(r4)
 20045d0:	21000204 	addi	r4,r4,8
 20045d4:	d9012d15 	stw	r4,1204(sp)
 20045d8:	dd813315 	stw	r22,1228(sp)
 20045dc:	dd013415 	stw	r20,1232(sp)
 20045e0:	003d2b06 	br	2003a90 <__alt_mem_onchip_memory+0xfe002a90>
 20045e4:	8080100c 	andi	r2,r16,64
 20045e8:	1000fe26 	beq	r2,zero,20049e4 <___vfprintf_internal_r+0x1838>
 20045ec:	d9012d17 	ldw	r4,1204(sp)
 20045f0:	002d883a 	mov	r22,zero
 20045f4:	0007883a 	mov	r3,zero
 20045f8:	25c0000b 	ldhu	r23,0(r4)
 20045fc:	21000104 	addi	r4,r4,4
 2004600:	d9012d15 	stw	r4,1204(sp)
 2004604:	b805883a 	mov	r2,r23
 2004608:	d8012585 	stb	zero,1174(sp)
 200460c:	003bbe06 	br	2003508 <__alt_mem_onchip_memory+0xfe002508>
 2004610:	8080100c 	andi	r2,r16,64
 2004614:	1000ed26 	beq	r2,zero,20049cc <___vfprintf_internal_r+0x1820>
 2004618:	d9012d17 	ldw	r4,1204(sp)
 200461c:	002d883a 	mov	r22,zero
 2004620:	25c0000b 	ldhu	r23,0(r4)
 2004624:	21000104 	addi	r4,r4,4
 2004628:	d9012d15 	stw	r4,1204(sp)
 200462c:	003cd206 	br	2003978 <__alt_mem_onchip_memory+0xfe002978>
 2004630:	00c00084 	movi	r3,2
 2004634:	d8012585 	stb	zero,1174(sp)
 2004638:	003bb306 	br	2003508 <__alt_mem_onchip_memory+0xfe002508>
 200463c:	8080040c 	andi	r2,r16,16
 2004640:	1000f11e 	bne	r2,zero,2004a08 <___vfprintf_internal_r+0x185c>
 2004644:	8400100c 	andi	r16,r16,64
 2004648:	80015526 	beq	r16,zero,2004ba0 <___vfprintf_internal_r+0x19f4>
 200464c:	da012d17 	ldw	r8,1204(sp)
 2004650:	d8c12c17 	ldw	r3,1200(sp)
 2004654:	40800017 	ldw	r2,0(r8)
 2004658:	42000104 	addi	r8,r8,4
 200465c:	da012d15 	stw	r8,1204(sp)
 2004660:	10c0000d 	sth	r3,0(r2)
 2004664:	003b0706 	br	2003284 <__alt_mem_onchip_memory+0xfe002284>
 2004668:	8080100c 	andi	r2,r16,64
 200466c:	1000c726 	beq	r2,zero,200498c <___vfprintf_internal_r+0x17e0>
 2004670:	da012d17 	ldw	r8,1204(sp)
 2004674:	45c0000f 	ldh	r23,0(r8)
 2004678:	42000104 	addi	r8,r8,4
 200467c:	da012d15 	stw	r8,1204(sp)
 2004680:	b82dd7fa 	srai	r22,r23,31
 2004684:	b005883a 	mov	r2,r22
 2004688:	003c1006 	br	20036cc <__alt_mem_onchip_memory+0xfe0026cc>
 200468c:	ac800007 	ldb	r18,0(r21)
 2004690:	003b2406 	br	2003324 <__alt_mem_onchip_memory+0xfe002324>
 2004694:	4c800115 	stw	r18,4(r9)
 2004698:	9211883a 	add	r8,r18,r8
 200469c:	18c00044 	addi	r3,r3,1
 20046a0:	da011d15 	stw	r8,1140(sp)
 20046a4:	d8c11c15 	stw	r3,1136(sp)
 20046a8:	008001c4 	movi	r2,7
 20046ac:	10c15416 	blt	r2,r3,2004c00 <___vfprintf_internal_r+0x1a54>
 20046b0:	4a400204 	addi	r9,r9,8
 20046b4:	d8813717 	ldw	r2,1244(sp)
 20046b8:	9ca7883a 	add	r19,r19,r18
 20046bc:	48800015 	stw	r2,0(r9)
 20046c0:	00800044 	movi	r2,1
 20046c4:	48800115 	stw	r2,4(r9)
 20046c8:	4091883a 	add	r8,r8,r2
 20046cc:	1887883a 	add	r3,r3,r2
 20046d0:	da011d15 	stw	r8,1140(sp)
 20046d4:	d8c11c15 	stw	r3,1136(sp)
 20046d8:	008001c4 	movi	r2,7
 20046dc:	10c14016 	blt	r2,r3,2004be0 <___vfprintf_internal_r+0x1a34>
 20046e0:	4a400204 	addi	r9,r9,8
 20046e4:	d9013217 	ldw	r4,1224(sp)
 20046e8:	da011d17 	ldw	r8,1140(sp)
 20046ec:	d8c11c17 	ldw	r3,1136(sp)
 20046f0:	24a5c83a 	sub	r18,r4,r18
 20046f4:	4cc00015 	stw	r19,0(r9)
 20046f8:	003fa406 	br	200458c <__alt_mem_onchip_memory+0xfe00358c>
 20046fc:	04c080b4 	movhi	r19,514
 2004700:	9cf81604 	addi	r19,r19,-8104
 2004704:	003cf406 	br	2003ad8 <__alt_mem_onchip_memory+0xfe002ad8>
 2004708:	d9412917 	ldw	r5,1188(sp)
 200470c:	8809883a 	mov	r4,r17
 2004710:	d9811b04 	addi	r6,sp,1132
 2004714:	20031780 	call	2003178 <__sprint_r>
 2004718:	103c371e 	bne	r2,zero,20037f8 <__alt_mem_onchip_memory+0xfe0027f8>
 200471c:	da011d17 	ldw	r8,1140(sp)
 2004720:	da400404 	addi	r9,sp,16
 2004724:	003e1c06 	br	2003f98 <__alt_mem_onchip_memory+0xfe002f98>
 2004728:	008080b4 	movhi	r2,514
 200472c:	10b82504 	addi	r2,r2,-8044
 2004730:	48800015 	stw	r2,0(r9)
 2004734:	00800044 	movi	r2,1
 2004738:	48800115 	stw	r2,4(r9)
 200473c:	4091883a 	add	r8,r8,r2
 2004740:	1887883a 	add	r3,r3,r2
 2004744:	da011d15 	stw	r8,1140(sp)
 2004748:	d8c11c15 	stw	r3,1136(sp)
 200474c:	008001c4 	movi	r2,7
 2004750:	10c0c316 	blt	r2,r3,2004a60 <___vfprintf_internal_r+0x18b4>
 2004754:	4a400204 	addi	r9,r9,8
 2004758:	9000041e 	bne	r18,zero,200476c <___vfprintf_internal_r+0x15c0>
 200475c:	d8c13217 	ldw	r3,1224(sp)
 2004760:	1800021e 	bne	r3,zero,200476c <___vfprintf_internal_r+0x15c0>
 2004764:	8080004c 	andi	r2,r16,1
 2004768:	103d7826 	beq	r2,zero,2003d4c <__alt_mem_onchip_memory+0xfe002d4c>
 200476c:	d8c11c17 	ldw	r3,1136(sp)
 2004770:	d9013717 	ldw	r4,1244(sp)
 2004774:	00800044 	movi	r2,1
 2004778:	48800115 	stw	r2,4(r9)
 200477c:	49000015 	stw	r4,0(r9)
 2004780:	4091883a 	add	r8,r8,r2
 2004784:	1887883a 	add	r3,r3,r2
 2004788:	da011d15 	stw	r8,1140(sp)
 200478c:	d8c11c15 	stw	r3,1136(sp)
 2004790:	008001c4 	movi	r2,7
 2004794:	10c12e16 	blt	r2,r3,2004c50 <___vfprintf_internal_r+0x1aa4>
 2004798:	4a400204 	addi	r9,r9,8
 200479c:	04a5c83a 	sub	r18,zero,r18
 20047a0:	0480de0e 	bge	zero,r18,2004b1c <___vfprintf_internal_r+0x1970>
 20047a4:	05800404 	movi	r22,16
 20047a8:	050080b4 	movhi	r20,514
 20047ac:	a5382984 	addi	r20,r20,-8026
 20047b0:	b480e20e 	bge	r22,r18,2004b3c <___vfprintf_internal_r+0x1990>
 20047b4:	05c001c4 	movi	r23,7
 20047b8:	df012917 	ldw	fp,1188(sp)
 20047bc:	00000306 	br	20047cc <___vfprintf_internal_r+0x1620>
 20047c0:	4a400204 	addi	r9,r9,8
 20047c4:	94bffc04 	addi	r18,r18,-16
 20047c8:	b480dc0e 	bge	r22,r18,2004b3c <___vfprintf_internal_r+0x1990>
 20047cc:	4d000015 	stw	r20,0(r9)
 20047d0:	4d800115 	stw	r22,4(r9)
 20047d4:	42000404 	addi	r8,r8,16
 20047d8:	18c00044 	addi	r3,r3,1
 20047dc:	da011d15 	stw	r8,1140(sp)
 20047e0:	d8c11c15 	stw	r3,1136(sp)
 20047e4:	b8fff60e 	bge	r23,r3,20047c0 <__alt_mem_onchip_memory+0xfe0037c0>
 20047e8:	8809883a 	mov	r4,r17
 20047ec:	e00b883a 	mov	r5,fp
 20047f0:	d9811b04 	addi	r6,sp,1132
 20047f4:	20031780 	call	2003178 <__sprint_r>
 20047f8:	103bff1e 	bne	r2,zero,20037f8 <__alt_mem_onchip_memory+0xfe0027f8>
 20047fc:	da011d17 	ldw	r8,1140(sp)
 2004800:	d8c11c17 	ldw	r3,1136(sp)
 2004804:	da400404 	addi	r9,sp,16
 2004808:	003fee06 	br	20047c4 <__alt_mem_onchip_memory+0xfe0037c4>
 200480c:	da413c15 	stw	r9,1264(sp)
 2004810:	2009c780 	call	2009c78 <__isnand>
 2004814:	da413c17 	ldw	r9,1264(sp)
 2004818:	1000851e 	bne	r2,zero,2004a30 <___vfprintf_internal_r+0x1884>
 200481c:	00bfffc4 	movi	r2,-1
 2004820:	e0817626 	beq	fp,r2,2004dfc <___vfprintf_internal_r+0x1c50>
 2004824:	008019c4 	movi	r2,103
 2004828:	90817126 	beq	r18,r2,2004df0 <___vfprintf_internal_r+0x1c44>
 200482c:	008011c4 	movi	r2,71
 2004830:	90816f26 	beq	r18,r2,2004df0 <___vfprintf_internal_r+0x1c44>
 2004834:	82004014 	ori	r8,r16,256
 2004838:	da012a15 	stw	r8,1192(sp)
 200483c:	a0017116 	blt	r20,zero,2004e04 <___vfprintf_internal_r+0x1c58>
 2004840:	d8012f05 	stb	zero,1212(sp)
 2004844:	00801984 	movi	r2,102
 2004848:	90811226 	beq	r18,r2,2004c94 <___vfprintf_internal_r+0x1ae8>
 200484c:	00801184 	movi	r2,70
 2004850:	90811026 	beq	r18,r2,2004c94 <___vfprintf_internal_r+0x1ae8>
 2004854:	00801944 	movi	r2,101
 2004858:	90819b26 	beq	r18,r2,2004ec8 <___vfprintf_internal_r+0x1d1c>
 200485c:	00801144 	movi	r2,69
 2004860:	90819926 	beq	r18,r2,2004ec8 <___vfprintf_internal_r+0x1d1c>
 2004864:	e02f883a 	mov	r23,fp
 2004868:	d8812404 	addi	r2,sp,1168
 200486c:	d8800115 	stw	r2,4(sp)
 2004870:	d8812304 	addi	r2,sp,1164
 2004874:	d8800215 	stw	r2,8(sp)
 2004878:	d8812204 	addi	r2,sp,1160
 200487c:	ddc00015 	stw	r23,0(sp)
 2004880:	d8800315 	stw	r2,12(sp)
 2004884:	8809883a 	mov	r4,r17
 2004888:	b00b883a 	mov	r5,r22
 200488c:	a00d883a 	mov	r6,r20
 2004890:	01c00084 	movi	r7,2
 2004894:	da413c15 	stw	r9,1264(sp)
 2004898:	20053440 	call	2005344 <_dtoa_r>
 200489c:	1027883a 	mov	r19,r2
 20048a0:	008019c4 	movi	r2,103
 20048a4:	da413c17 	ldw	r9,1264(sp)
 20048a8:	90818c1e 	bne	r18,r2,2004edc <___vfprintf_internal_r+0x1d30>
 20048ac:	8080004c 	andi	r2,r16,1
 20048b0:	10017926 	beq	r2,zero,2004e98 <___vfprintf_internal_r+0x1cec>
 20048b4:	00801184 	movi	r2,70
 20048b8:	9dc7883a 	add	r3,r19,r23
 20048bc:	90810626 	beq	r18,r2,2004cd8 <___vfprintf_internal_r+0x1b2c>
 20048c0:	b009883a 	mov	r4,r22
 20048c4:	a00b883a 	mov	r5,r20
 20048c8:	000d883a 	mov	r6,zero
 20048cc:	000f883a 	mov	r7,zero
 20048d0:	d8c13b15 	stw	r3,1260(sp)
 20048d4:	da413c15 	stw	r9,1264(sp)
 20048d8:	200b0740 	call	200b074 <__eqdf2>
 20048dc:	d8c13b17 	ldw	r3,1260(sp)
 20048e0:	da413c17 	ldw	r9,1264(sp)
 20048e4:	10000726 	beq	r2,zero,2004904 <___vfprintf_internal_r+0x1758>
 20048e8:	d8812217 	ldw	r2,1160(sp)
 20048ec:	10c1962e 	bgeu	r2,r3,2004f48 <___vfprintf_internal_r+0x1d9c>
 20048f0:	01000c04 	movi	r4,48
 20048f4:	11000005 	stb	r4,0(r2)
 20048f8:	10800044 	addi	r2,r2,1
 20048fc:	d8812215 	stw	r2,1160(sp)
 2004900:	10fffc1e 	bne	r2,r3,20048f4 <__alt_mem_onchip_memory+0xfe0038f4>
 2004904:	1cc7c83a 	sub	r3,r3,r19
 2004908:	d8c13215 	stw	r3,1224(sp)
 200490c:	008019c4 	movi	r2,103
 2004910:	90810626 	beq	r18,r2,2004d2c <___vfprintf_internal_r+0x1b80>
 2004914:	008011c4 	movi	r2,71
 2004918:	90810426 	beq	r18,r2,2004d2c <___vfprintf_internal_r+0x1b80>
 200491c:	00801984 	movi	r2,102
 2004920:	90819a1e 	bne	r18,r2,2004f8c <___vfprintf_internal_r+0x1de0>
 2004924:	d8812417 	ldw	r2,1168(sp)
 2004928:	d8812b15 	stw	r2,1196(sp)
 200492c:	0081880e 	bge	zero,r2,2004f50 <___vfprintf_internal_r+0x1da4>
 2004930:	e000021e 	bne	fp,zero,200493c <___vfprintf_internal_r+0x1790>
 2004934:	8400004c 	andi	r16,r16,1
 2004938:	80000426 	beq	r16,zero,200494c <___vfprintf_internal_r+0x17a0>
 200493c:	d8812b17 	ldw	r2,1196(sp)
 2004940:	e2000044 	addi	r8,fp,1
 2004944:	1205883a 	add	r2,r2,r8
 2004948:	d8812b15 	stw	r2,1196(sp)
 200494c:	d8812815 	stw	r2,1184(sp)
 2004950:	10011716 	blt	r2,zero,2004db0 <___vfprintf_internal_r+0x1c04>
 2004954:	ddc12f07 	ldb	r23,1212(sp)
 2004958:	b800ca26 	beq	r23,zero,2004c84 <___vfprintf_internal_r+0x1ad8>
 200495c:	00800b44 	movi	r2,45
 2004960:	d8812585 	stb	r2,1174(sp)
 2004964:	dc012a17 	ldw	r16,1192(sp)
 2004968:	d8013115 	stw	zero,1220(sp)
 200496c:	003afe06 	br	2003568 <__alt_mem_onchip_memory+0xfe002568>
 2004970:	d8812b17 	ldw	r2,1196(sp)
 2004974:	d8812815 	stw	r2,1184(sp)
 2004978:	10005e16 	blt	r2,zero,2004af4 <___vfprintf_internal_r+0x1948>
 200497c:	d8812583 	ldbu	r2,1174(sp)
 2004980:	ddc12d15 	stw	r23,1204(sp)
 2004984:	d8013115 	stw	zero,1220(sp)
 2004988:	003af306 	br	2003558 <__alt_mem_onchip_memory+0xfe002558>
 200498c:	d8812d17 	ldw	r2,1204(sp)
 2004990:	15c00017 	ldw	r23,0(r2)
 2004994:	10800104 	addi	r2,r2,4
 2004998:	d8812d15 	stw	r2,1204(sp)
 200499c:	b82dd7fa 	srai	r22,r23,31
 20049a0:	b005883a 	mov	r2,r22
 20049a4:	003b4906 	br	20036cc <__alt_mem_onchip_memory+0xfe0026cc>
 20049a8:	d8c12d17 	ldw	r3,1204(sp)
 20049ac:	002d883a 	mov	r22,zero
 20049b0:	1dc00017 	ldw	r23,0(r3)
 20049b4:	18c00104 	addi	r3,r3,4
 20049b8:	d8c12d15 	stw	r3,1204(sp)
 20049bc:	b805883a 	mov	r2,r23
 20049c0:	00c00044 	movi	r3,1
 20049c4:	d8012585 	stb	zero,1174(sp)
 20049c8:	003acf06 	br	2003508 <__alt_mem_onchip_memory+0xfe002508>
 20049cc:	da012d17 	ldw	r8,1204(sp)
 20049d0:	002d883a 	mov	r22,zero
 20049d4:	45c00017 	ldw	r23,0(r8)
 20049d8:	42000104 	addi	r8,r8,4
 20049dc:	da012d15 	stw	r8,1204(sp)
 20049e0:	003be506 	br	2003978 <__alt_mem_onchip_memory+0xfe002978>
 20049e4:	da012d17 	ldw	r8,1204(sp)
 20049e8:	002d883a 	mov	r22,zero
 20049ec:	0007883a 	mov	r3,zero
 20049f0:	45c00017 	ldw	r23,0(r8)
 20049f4:	42000104 	addi	r8,r8,4
 20049f8:	da012d15 	stw	r8,1204(sp)
 20049fc:	b805883a 	mov	r2,r23
 2004a00:	d8012585 	stb	zero,1174(sp)
 2004a04:	003ac006 	br	2003508 <__alt_mem_onchip_memory+0xfe002508>
 2004a08:	d8c12d17 	ldw	r3,1204(sp)
 2004a0c:	d9012c17 	ldw	r4,1200(sp)
 2004a10:	18800017 	ldw	r2,0(r3)
 2004a14:	18c00104 	addi	r3,r3,4
 2004a18:	d8c12d15 	stw	r3,1204(sp)
 2004a1c:	11000015 	stw	r4,0(r2)
 2004a20:	003a1806 	br	2003284 <__alt_mem_onchip_memory+0xfe002284>
 2004a24:	073fffc4 	movi	fp,-1
 2004a28:	202b883a 	mov	r21,r4
 2004a2c:	003a3e06 	br	2003328 <__alt_mem_onchip_memory+0xfe002328>
 2004a30:	008011c4 	movi	r2,71
 2004a34:	14809016 	blt	r2,r18,2004c78 <___vfprintf_internal_r+0x1acc>
 2004a38:	04c080b4 	movhi	r19,514
 2004a3c:	9cf81704 	addi	r19,r19,-8100
 2004a40:	00c000c4 	movi	r3,3
 2004a44:	00bfdfc4 	movi	r2,-129
 2004a48:	80a0703a 	and	r16,r16,r2
 2004a4c:	d8c12815 	stw	r3,1184(sp)
 2004a50:	d8812583 	ldbu	r2,1174(sp)
 2004a54:	d8c12b15 	stw	r3,1196(sp)
 2004a58:	d8013115 	stw	zero,1220(sp)
 2004a5c:	003abe06 	br	2003558 <__alt_mem_onchip_memory+0xfe002558>
 2004a60:	d9412917 	ldw	r5,1188(sp)
 2004a64:	8809883a 	mov	r4,r17
 2004a68:	d9811b04 	addi	r6,sp,1132
 2004a6c:	20031780 	call	2003178 <__sprint_r>
 2004a70:	103b611e 	bne	r2,zero,20037f8 <__alt_mem_onchip_memory+0xfe0027f8>
 2004a74:	dc812417 	ldw	r18,1168(sp)
 2004a78:	da011d17 	ldw	r8,1140(sp)
 2004a7c:	da400404 	addi	r9,sp,16
 2004a80:	003f3506 	br	2004758 <__alt_mem_onchip_memory+0xfe003758>
 2004a84:	ad400044 	addi	r21,r21,1
 2004a88:	84000814 	ori	r16,r16,32
 2004a8c:	14800047 	ldb	r18,1(r2)
 2004a90:	003a2406 	br	2003324 <__alt_mem_onchip_memory+0xfe002324>
 2004a94:	d9412917 	ldw	r5,1188(sp)
 2004a98:	8809883a 	mov	r4,r17
 2004a9c:	d9811b04 	addi	r6,sp,1132
 2004aa0:	20031780 	call	2003178 <__sprint_r>
 2004aa4:	103b541e 	bne	r2,zero,20037f8 <__alt_mem_onchip_memory+0xfe0027f8>
 2004aa8:	da011d17 	ldw	r8,1140(sp)
 2004aac:	da400404 	addi	r9,sp,16
 2004ab0:	003d4a06 	br	2003fdc <__alt_mem_onchip_memory+0xfe002fdc>
 2004ab4:	4d000015 	stw	r20,0(r9)
 2004ab8:	4c800115 	stw	r18,4(r9)
 2004abc:	4491883a 	add	r8,r8,r18
 2004ac0:	18c00044 	addi	r3,r3,1
 2004ac4:	da011d15 	stw	r8,1140(sp)
 2004ac8:	d8c11c15 	stw	r3,1136(sp)
 2004acc:	008001c4 	movi	r2,7
 2004ad0:	10fcdc16 	blt	r2,r3,2003e44 <__alt_mem_onchip_memory+0xfe002e44>
 2004ad4:	4a400204 	addi	r9,r9,8
 2004ad8:	003ce106 	br	2003e60 <__alt_mem_onchip_memory+0xfe002e60>
 2004adc:	da413c15 	stw	r9,1264(sp)
 2004ae0:	20030ec0 	call	20030ec <strlen>
 2004ae4:	d8812b15 	stw	r2,1196(sp)
 2004ae8:	d8812815 	stw	r2,1184(sp)
 2004aec:	da413c17 	ldw	r9,1264(sp)
 2004af0:	103fa20e 	bge	r2,zero,200497c <__alt_mem_onchip_memory+0xfe00397c>
 2004af4:	d8012815 	stw	zero,1184(sp)
 2004af8:	003fa006 	br	200497c <__alt_mem_onchip_memory+0xfe00397c>
 2004afc:	d9412917 	ldw	r5,1188(sp)
 2004b00:	8809883a 	mov	r4,r17
 2004b04:	d9811b04 	addi	r6,sp,1132
 2004b08:	20031780 	call	2003178 <__sprint_r>
 2004b0c:	103b3a1e 	bne	r2,zero,20037f8 <__alt_mem_onchip_memory+0xfe0027f8>
 2004b10:	da011d17 	ldw	r8,1140(sp)
 2004b14:	d8c11c17 	ldw	r3,1136(sp)
 2004b18:	da400404 	addi	r9,sp,16
 2004b1c:	d8813217 	ldw	r2,1224(sp)
 2004b20:	4cc00015 	stw	r19,0(r9)
 2004b24:	48800115 	stw	r2,4(r9)
 2004b28:	4091883a 	add	r8,r8,r2
 2004b2c:	003c8106 	br	2003d34 <__alt_mem_onchip_memory+0xfe002d34>
 2004b30:	00800b44 	movi	r2,45
 2004b34:	d8812585 	stb	r2,1174(sp)
 2004b38:	003be306 	br	2003ac8 <__alt_mem_onchip_memory+0xfe002ac8>
 2004b3c:	4d000015 	stw	r20,0(r9)
 2004b40:	4c800115 	stw	r18,4(r9)
 2004b44:	4491883a 	add	r8,r8,r18
 2004b48:	18c00044 	addi	r3,r3,1
 2004b4c:	da011d15 	stw	r8,1140(sp)
 2004b50:	d8c11c15 	stw	r3,1136(sp)
 2004b54:	008001c4 	movi	r2,7
 2004b58:	10ffe816 	blt	r2,r3,2004afc <__alt_mem_onchip_memory+0xfe003afc>
 2004b5c:	4a400204 	addi	r9,r9,8
 2004b60:	003fee06 	br	2004b1c <__alt_mem_onchip_memory+0xfe003b1c>
 2004b64:	df012b15 	stw	fp,1196(sp)
 2004b68:	00800184 	movi	r2,6
 2004b6c:	1700072e 	bgeu	r2,fp,2004b8c <___vfprintf_internal_r+0x19e0>
 2004b70:	d8812b15 	stw	r2,1196(sp)
 2004b74:	d8812815 	stw	r2,1184(sp)
 2004b78:	ddc12d15 	stw	r23,1204(sp)
 2004b7c:	04c080b4 	movhi	r19,514
 2004b80:	9cf82304 	addi	r19,r19,-8052
 2004b84:	d8013115 	stw	zero,1220(sp)
 2004b88:	003a7a06 	br	2003574 <__alt_mem_onchip_memory+0xfe002574>
 2004b8c:	d8812b17 	ldw	r2,1196(sp)
 2004b90:	d8812815 	stw	r2,1184(sp)
 2004b94:	103ff80e 	bge	r2,zero,2004b78 <__alt_mem_onchip_memory+0xfe003b78>
 2004b98:	d8012815 	stw	zero,1184(sp)
 2004b9c:	003ff606 	br	2004b78 <__alt_mem_onchip_memory+0xfe003b78>
 2004ba0:	d9012d17 	ldw	r4,1204(sp)
 2004ba4:	da012c17 	ldw	r8,1200(sp)
 2004ba8:	20800017 	ldw	r2,0(r4)
 2004bac:	21000104 	addi	r4,r4,4
 2004bb0:	d9012d15 	stw	r4,1204(sp)
 2004bb4:	12000015 	stw	r8,0(r2)
 2004bb8:	0039b206 	br	2003284 <__alt_mem_onchip_memory+0xfe002284>
 2004bbc:	d9412917 	ldw	r5,1188(sp)
 2004bc0:	8809883a 	mov	r4,r17
 2004bc4:	d9811b04 	addi	r6,sp,1132
 2004bc8:	20031780 	call	2003178 <__sprint_r>
 2004bcc:	103b0a1e 	bne	r2,zero,20037f8 <__alt_mem_onchip_memory+0xfe0027f8>
 2004bd0:	dc812417 	ldw	r18,1168(sp)
 2004bd4:	da011d17 	ldw	r8,1140(sp)
 2004bd8:	da400404 	addi	r9,sp,16
 2004bdc:	003def06 	br	200439c <__alt_mem_onchip_memory+0xfe00339c>
 2004be0:	d9412917 	ldw	r5,1188(sp)
 2004be4:	8809883a 	mov	r4,r17
 2004be8:	d9811b04 	addi	r6,sp,1132
 2004bec:	20031780 	call	2003178 <__sprint_r>
 2004bf0:	103b011e 	bne	r2,zero,20037f8 <__alt_mem_onchip_memory+0xfe0027f8>
 2004bf4:	dc812417 	ldw	r18,1168(sp)
 2004bf8:	da400404 	addi	r9,sp,16
 2004bfc:	003eb906 	br	20046e4 <__alt_mem_onchip_memory+0xfe0036e4>
 2004c00:	d9412917 	ldw	r5,1188(sp)
 2004c04:	8809883a 	mov	r4,r17
 2004c08:	d9811b04 	addi	r6,sp,1132
 2004c0c:	20031780 	call	2003178 <__sprint_r>
 2004c10:	103af91e 	bne	r2,zero,20037f8 <__alt_mem_onchip_memory+0xfe0027f8>
 2004c14:	dc812417 	ldw	r18,1168(sp)
 2004c18:	da011d17 	ldw	r8,1140(sp)
 2004c1c:	d8c11c17 	ldw	r3,1136(sp)
 2004c20:	da400404 	addi	r9,sp,16
 2004c24:	003ea306 	br	20046b4 <__alt_mem_onchip_memory+0xfe0036b4>
 2004c28:	00800244 	movi	r2,9
 2004c2c:	15fda636 	bltu	r2,r23,20042c8 <__alt_mem_onchip_memory+0xfe0032c8>
 2004c30:	dd010e04 	addi	r20,sp,1080
 2004c34:	003dc206 	br	2004340 <__alt_mem_onchip_memory+0xfe003340>
 2004c38:	df012815 	stw	fp,1184(sp)
 2004c3c:	d8812583 	ldbu	r2,1174(sp)
 2004c40:	df012b15 	stw	fp,1196(sp)
 2004c44:	ddc12d15 	stw	r23,1204(sp)
 2004c48:	d8013115 	stw	zero,1220(sp)
 2004c4c:	003a4206 	br	2003558 <__alt_mem_onchip_memory+0xfe002558>
 2004c50:	d9412917 	ldw	r5,1188(sp)
 2004c54:	8809883a 	mov	r4,r17
 2004c58:	d9811b04 	addi	r6,sp,1132
 2004c5c:	20031780 	call	2003178 <__sprint_r>
 2004c60:	103ae51e 	bne	r2,zero,20037f8 <__alt_mem_onchip_memory+0xfe0027f8>
 2004c64:	dc812417 	ldw	r18,1168(sp)
 2004c68:	da011d17 	ldw	r8,1140(sp)
 2004c6c:	d8c11c17 	ldw	r3,1136(sp)
 2004c70:	da400404 	addi	r9,sp,16
 2004c74:	003ec906 	br	200479c <__alt_mem_onchip_memory+0xfe00379c>
 2004c78:	04c080b4 	movhi	r19,514
 2004c7c:	9cf81804 	addi	r19,r19,-8096
 2004c80:	003f6f06 	br	2004a40 <__alt_mem_onchip_memory+0xfe003a40>
 2004c84:	d8812583 	ldbu	r2,1174(sp)
 2004c88:	dc012a17 	ldw	r16,1192(sp)
 2004c8c:	d8013115 	stw	zero,1220(sp)
 2004c90:	003a3106 	br	2003558 <__alt_mem_onchip_memory+0xfe002558>
 2004c94:	d8812404 	addi	r2,sp,1168
 2004c98:	d8800115 	stw	r2,4(sp)
 2004c9c:	d8812304 	addi	r2,sp,1164
 2004ca0:	d8800215 	stw	r2,8(sp)
 2004ca4:	d8812204 	addi	r2,sp,1160
 2004ca8:	df000015 	stw	fp,0(sp)
 2004cac:	d8800315 	stw	r2,12(sp)
 2004cb0:	8809883a 	mov	r4,r17
 2004cb4:	b00b883a 	mov	r5,r22
 2004cb8:	a00d883a 	mov	r6,r20
 2004cbc:	01c000c4 	movi	r7,3
 2004cc0:	da413c15 	stw	r9,1264(sp)
 2004cc4:	20053440 	call	2005344 <_dtoa_r>
 2004cc8:	da413c17 	ldw	r9,1264(sp)
 2004ccc:	1027883a 	mov	r19,r2
 2004cd0:	1707883a 	add	r3,r2,fp
 2004cd4:	e02f883a 	mov	r23,fp
 2004cd8:	99000007 	ldb	r4,0(r19)
 2004cdc:	00800c04 	movi	r2,48
 2004ce0:	20800326 	beq	r4,r2,2004cf0 <___vfprintf_internal_r+0x1b44>
 2004ce4:	da812417 	ldw	r10,1168(sp)
 2004ce8:	1a87883a 	add	r3,r3,r10
 2004cec:	003ef406 	br	20048c0 <__alt_mem_onchip_memory+0xfe0038c0>
 2004cf0:	b009883a 	mov	r4,r22
 2004cf4:	a00b883a 	mov	r5,r20
 2004cf8:	000d883a 	mov	r6,zero
 2004cfc:	000f883a 	mov	r7,zero
 2004d00:	d8c13b15 	stw	r3,1260(sp)
 2004d04:	da413c15 	stw	r9,1264(sp)
 2004d08:	200b0d00 	call	200b0d0 <__nedf2>
 2004d0c:	d8c13b17 	ldw	r3,1260(sp)
 2004d10:	da413c17 	ldw	r9,1264(sp)
 2004d14:	103ff326 	beq	r2,zero,2004ce4 <__alt_mem_onchip_memory+0xfe003ce4>
 2004d18:	00800044 	movi	r2,1
 2004d1c:	15d5c83a 	sub	r10,r2,r23
 2004d20:	da812415 	stw	r10,1168(sp)
 2004d24:	1a87883a 	add	r3,r3,r10
 2004d28:	003ee506 	br	20048c0 <__alt_mem_onchip_memory+0xfe0038c0>
 2004d2c:	d8812417 	ldw	r2,1168(sp)
 2004d30:	d8812b15 	stw	r2,1196(sp)
 2004d34:	1029883a 	mov	r20,r2
 2004d38:	00bfff44 	movi	r2,-3
 2004d3c:	a0800116 	blt	r20,r2,2004d44 <___vfprintf_internal_r+0x1b98>
 2004d40:	e5001d0e 	bge	fp,r20,2004db8 <___vfprintf_internal_r+0x1c0c>
 2004d44:	94bfff84 	addi	r18,r18,-2
 2004d48:	a53fffc4 	addi	r20,r20,-1
 2004d4c:	dd012415 	stw	r20,1168(sp)
 2004d50:	dc811fc5 	stb	r18,1151(sp)
 2004d54:	a0007816 	blt	r20,zero,2004f38 <___vfprintf_internal_r+0x1d8c>
 2004d58:	00800ac4 	movi	r2,43
 2004d5c:	d8812005 	stb	r2,1152(sp)
 2004d60:	00800244 	movi	r2,9
 2004d64:	15002b16 	blt	r2,r20,2004e14 <___vfprintf_internal_r+0x1c68>
 2004d68:	00800c04 	movi	r2,48
 2004d6c:	a5000c04 	addi	r20,r20,48
 2004d70:	d8812045 	stb	r2,1153(sp)
 2004d74:	dd012085 	stb	r20,1154(sp)
 2004d78:	d8c120c4 	addi	r3,sp,1155
 2004d7c:	d8811fc4 	addi	r2,sp,1151
 2004d80:	da013217 	ldw	r8,1224(sp)
 2004d84:	1885c83a 	sub	r2,r3,r2
 2004d88:	d8813515 	stw	r2,1236(sp)
 2004d8c:	4085883a 	add	r2,r8,r2
 2004d90:	d8812b15 	stw	r2,1196(sp)
 2004d94:	00800044 	movi	r2,1
 2004d98:	1200610e 	bge	r2,r8,2004f20 <___vfprintf_internal_r+0x1d74>
 2004d9c:	d8812b17 	ldw	r2,1196(sp)
 2004da0:	10800044 	addi	r2,r2,1
 2004da4:	d8812b15 	stw	r2,1196(sp)
 2004da8:	d8812815 	stw	r2,1184(sp)
 2004dac:	103ee90e 	bge	r2,zero,2004954 <__alt_mem_onchip_memory+0xfe003954>
 2004db0:	d8012815 	stw	zero,1184(sp)
 2004db4:	003ee706 	br	2004954 <__alt_mem_onchip_memory+0xfe003954>
 2004db8:	d8812b17 	ldw	r2,1196(sp)
 2004dbc:	da013217 	ldw	r8,1224(sp)
 2004dc0:	12003716 	blt	r2,r8,2004ea0 <___vfprintf_internal_r+0x1cf4>
 2004dc4:	8400004c 	andi	r16,r16,1
 2004dc8:	80000326 	beq	r16,zero,2004dd8 <___vfprintf_internal_r+0x1c2c>
 2004dcc:	d8812b17 	ldw	r2,1196(sp)
 2004dd0:	10800044 	addi	r2,r2,1
 2004dd4:	d8812b15 	stw	r2,1196(sp)
 2004dd8:	d8812815 	stw	r2,1184(sp)
 2004ddc:	10003716 	blt	r2,zero,2004ebc <___vfprintf_internal_r+0x1d10>
 2004de0:	048019c4 	movi	r18,103
 2004de4:	003edb06 	br	2004954 <__alt_mem_onchip_memory+0xfe003954>
 2004de8:	d8012815 	stw	zero,1184(sp)
 2004dec:	003b6906 	br	2003b94 <__alt_mem_onchip_memory+0xfe002b94>
 2004df0:	e03e901e 	bne	fp,zero,2004834 <__alt_mem_onchip_memory+0xfe003834>
 2004df4:	07000044 	movi	fp,1
 2004df8:	003e8e06 	br	2004834 <__alt_mem_onchip_memory+0xfe003834>
 2004dfc:	07000184 	movi	fp,6
 2004e00:	003e8c06 	br	2004834 <__alt_mem_onchip_memory+0xfe003834>
 2004e04:	00c00b44 	movi	r3,45
 2004e08:	a520003c 	xorhi	r20,r20,32768
 2004e0c:	d8c12f05 	stb	r3,1212(sp)
 2004e10:	003e8c06 	br	2004844 <__alt_mem_onchip_memory+0xfe003844>
 2004e14:	d8c11f84 	addi	r3,sp,1150
 2004e18:	102f883a 	mov	r23,r2
 2004e1c:	4839883a 	mov	fp,r9
 2004e20:	a009883a 	mov	r4,r20
 2004e24:	01400284 	movi	r5,10
 2004e28:	182d883a 	mov	r22,r3
 2004e2c:	200b5640 	call	200b564 <__modsi3>
 2004e30:	10800c04 	addi	r2,r2,48
 2004e34:	a009883a 	mov	r4,r20
 2004e38:	b0800005 	stb	r2,0(r22)
 2004e3c:	01400284 	movi	r5,10
 2004e40:	200b5140 	call	200b514 <__divsi3>
 2004e44:	1029883a 	mov	r20,r2
 2004e48:	b0ffffc4 	addi	r3,r22,-1
 2004e4c:	b8bff416 	blt	r23,r2,2004e20 <__alt_mem_onchip_memory+0xfe003e20>
 2004e50:	11400c04 	addi	r5,r2,48
 2004e54:	b17fffc5 	stb	r5,-1(r22)
 2004e58:	d8811fc4 	addi	r2,sp,1151
 2004e5c:	e013883a 	mov	r9,fp
 2004e60:	1880482e 	bgeu	r3,r2,2004f84 <___vfprintf_internal_r+0x1dd8>
 2004e64:	b007883a 	mov	r3,r22
 2004e68:	d9012044 	addi	r4,sp,1153
 2004e6c:	00000206 	br	2004e78 <___vfprintf_internal_r+0x1ccc>
 2004e70:	19400003 	ldbu	r5,0(r3)
 2004e74:	18c00044 	addi	r3,r3,1
 2004e78:	21400005 	stb	r5,0(r4)
 2004e7c:	21000044 	addi	r4,r4,1
 2004e80:	10fffb1e 	bne	r2,r3,2004e70 <__alt_mem_onchip_memory+0xfe003e70>
 2004e84:	d8c12004 	addi	r3,sp,1152
 2004e88:	1d87c83a 	sub	r3,r3,r22
 2004e8c:	d9012044 	addi	r4,sp,1153
 2004e90:	20c7883a 	add	r3,r4,r3
 2004e94:	003fba06 	br	2004d80 <__alt_mem_onchip_memory+0xfe003d80>
 2004e98:	d8c12217 	ldw	r3,1160(sp)
 2004e9c:	003e9906 	br	2004904 <__alt_mem_onchip_memory+0xfe003904>
 2004ea0:	05000b0e 	bge	zero,r20,2004ed0 <___vfprintf_internal_r+0x1d24>
 2004ea4:	05000044 	movi	r20,1
 2004ea8:	da013217 	ldw	r8,1224(sp)
 2004eac:	a229883a 	add	r20,r20,r8
 2004eb0:	dd012b15 	stw	r20,1196(sp)
 2004eb4:	dd012815 	stw	r20,1184(sp)
 2004eb8:	a03fc90e 	bge	r20,zero,2004de0 <__alt_mem_onchip_memory+0xfe003de0>
 2004ebc:	d8012815 	stw	zero,1184(sp)
 2004ec0:	048019c4 	movi	r18,103
 2004ec4:	003ea306 	br	2004954 <__alt_mem_onchip_memory+0xfe003954>
 2004ec8:	e5c00044 	addi	r23,fp,1
 2004ecc:	003e6606 	br	2004868 <__alt_mem_onchip_memory+0xfe003868>
 2004ed0:	00800084 	movi	r2,2
 2004ed4:	1529c83a 	sub	r20,r2,r20
 2004ed8:	003ff306 	br	2004ea8 <__alt_mem_onchip_memory+0xfe003ea8>
 2004edc:	008011c4 	movi	r2,71
 2004ee0:	90be7226 	beq	r18,r2,20048ac <__alt_mem_onchip_memory+0xfe0038ac>
 2004ee4:	003e7306 	br	20048b4 <__alt_mem_onchip_memory+0xfe0038b4>
 2004ee8:	d8812d17 	ldw	r2,1204(sp)
 2004eec:	ac800043 	ldbu	r18,1(r21)
 2004ef0:	202b883a 	mov	r21,r4
 2004ef4:	17000017 	ldw	fp,0(r2)
 2004ef8:	10800104 	addi	r2,r2,4
 2004efc:	d8812d15 	stw	r2,1204(sp)
 2004f00:	e0001b16 	blt	fp,zero,2004f70 <___vfprintf_internal_r+0x1dc4>
 2004f04:	94803fcc 	andi	r18,r18,255
 2004f08:	9480201c 	xori	r18,r18,128
 2004f0c:	94bfe004 	addi	r18,r18,-128
 2004f10:	00390406 	br	2003324 <__alt_mem_onchip_memory+0xfe002324>
 2004f14:	00bfffc4 	movi	r2,-1
 2004f18:	d8812c15 	stw	r2,1200(sp)
 2004f1c:	003a2506 	br	20037b4 <__alt_mem_onchip_memory+0xfe0027b4>
 2004f20:	80a0703a 	and	r16,r16,r2
 2004f24:	803f9d1e 	bne	r16,zero,2004d9c <__alt_mem_onchip_memory+0xfe003d9c>
 2004f28:	d8812b17 	ldw	r2,1196(sp)
 2004f2c:	d8812815 	stw	r2,1184(sp)
 2004f30:	103e880e 	bge	r2,zero,2004954 <__alt_mem_onchip_memory+0xfe003954>
 2004f34:	003f9e06 	br	2004db0 <__alt_mem_onchip_memory+0xfe003db0>
 2004f38:	00800b44 	movi	r2,45
 2004f3c:	0529c83a 	sub	r20,zero,r20
 2004f40:	d8812005 	stb	r2,1152(sp)
 2004f44:	003f8606 	br	2004d60 <__alt_mem_onchip_memory+0xfe003d60>
 2004f48:	1007883a 	mov	r3,r2
 2004f4c:	003e6d06 	br	2004904 <__alt_mem_onchip_memory+0xfe003904>
 2004f50:	e000021e 	bne	fp,zero,2004f5c <___vfprintf_internal_r+0x1db0>
 2004f54:	8400004c 	andi	r16,r16,1
 2004f58:	80000e26 	beq	r16,zero,2004f94 <___vfprintf_internal_r+0x1de8>
 2004f5c:	e7000084 	addi	fp,fp,2
 2004f60:	df012b15 	stw	fp,1196(sp)
 2004f64:	df012815 	stw	fp,1184(sp)
 2004f68:	e03e7a0e 	bge	fp,zero,2004954 <__alt_mem_onchip_memory+0xfe003954>
 2004f6c:	003f9006 	br	2004db0 <__alt_mem_onchip_memory+0xfe003db0>
 2004f70:	94803fcc 	andi	r18,r18,255
 2004f74:	9480201c 	xori	r18,r18,128
 2004f78:	073fffc4 	movi	fp,-1
 2004f7c:	94bfe004 	addi	r18,r18,-128
 2004f80:	0038e806 	br	2003324 <__alt_mem_onchip_memory+0xfe002324>
 2004f84:	d8c12044 	addi	r3,sp,1153
 2004f88:	003f7d06 	br	2004d80 <__alt_mem_onchip_memory+0xfe003d80>
 2004f8c:	dd012417 	ldw	r20,1168(sp)
 2004f90:	003f6d06 	br	2004d48 <__alt_mem_onchip_memory+0xfe003d48>
 2004f94:	00c00044 	movi	r3,1
 2004f98:	d8c12815 	stw	r3,1184(sp)
 2004f9c:	d8c12b15 	stw	r3,1196(sp)
 2004fa0:	003e6c06 	br	2004954 <__alt_mem_onchip_memory+0xfe003954>

02004fa4 <__vfprintf_internal>:
 2004fa4:	008080b4 	movhi	r2,514
 2004fa8:	10811804 	addi	r2,r2,1120
 2004fac:	2007883a 	mov	r3,r4
 2004fb0:	11000017 	ldw	r4,0(r2)
 2004fb4:	2805883a 	mov	r2,r5
 2004fb8:	300f883a 	mov	r7,r6
 2004fbc:	180b883a 	mov	r5,r3
 2004fc0:	100d883a 	mov	r6,r2
 2004fc4:	20031ac1 	jmpi	20031ac <___vfprintf_internal_r>

02004fc8 <__swsetup_r>:
 2004fc8:	008080b4 	movhi	r2,514
 2004fcc:	10811804 	addi	r2,r2,1120
 2004fd0:	10800017 	ldw	r2,0(r2)
 2004fd4:	defffd04 	addi	sp,sp,-12
 2004fd8:	dc400115 	stw	r17,4(sp)
 2004fdc:	dc000015 	stw	r16,0(sp)
 2004fe0:	dfc00215 	stw	ra,8(sp)
 2004fe4:	2023883a 	mov	r17,r4
 2004fe8:	2821883a 	mov	r16,r5
 2004fec:	10000226 	beq	r2,zero,2004ff8 <__swsetup_r+0x30>
 2004ff0:	10c00e17 	ldw	r3,56(r2)
 2004ff4:	18003d26 	beq	r3,zero,20050ec <__swsetup_r+0x124>
 2004ff8:	8080030b 	ldhu	r2,12(r16)
 2004ffc:	10c0020c 	andi	r3,r2,8
 2005000:	18ffffcc 	andi	r3,r3,65535
 2005004:	18e0001c 	xori	r3,r3,32768
 2005008:	18e00004 	addi	r3,r3,-32768
 200500c:	18001226 	beq	r3,zero,2005058 <__swsetup_r+0x90>
 2005010:	80c00417 	ldw	r3,16(r16)
 2005014:	18001f26 	beq	r3,zero,2005094 <__swsetup_r+0xcc>
 2005018:	1100004c 	andi	r4,r2,1
 200501c:	2000261e 	bne	r4,zero,20050b8 <__swsetup_r+0xf0>
 2005020:	1080008c 	andi	r2,r2,2
 2005024:	10bfffcc 	andi	r2,r2,65535
 2005028:	10a0001c 	xori	r2,r2,32768
 200502c:	10a00004 	addi	r2,r2,-32768
 2005030:	1000311e 	bne	r2,zero,20050f8 <__swsetup_r+0x130>
 2005034:	80800517 	ldw	r2,20(r16)
 2005038:	80800215 	stw	r2,8(r16)
 200503c:	18002326 	beq	r3,zero,20050cc <__swsetup_r+0x104>
 2005040:	0005883a 	mov	r2,zero
 2005044:	dfc00217 	ldw	ra,8(sp)
 2005048:	dc400117 	ldw	r17,4(sp)
 200504c:	dc000017 	ldw	r16,0(sp)
 2005050:	dec00304 	addi	sp,sp,12
 2005054:	f800283a 	ret
 2005058:	10c0040c 	andi	r3,r2,16
 200505c:	18ffffcc 	andi	r3,r3,65535
 2005060:	18e0001c 	xori	r3,r3,32768
 2005064:	18e00004 	addi	r3,r3,-32768
 2005068:	18001e26 	beq	r3,zero,20050e4 <__swsetup_r+0x11c>
 200506c:	10c0010c 	andi	r3,r2,4
 2005070:	18ffffcc 	andi	r3,r3,65535
 2005074:	18e0001c 	xori	r3,r3,32768
 2005078:	18e00004 	addi	r3,r3,-32768
 200507c:	1800211e 	bne	r3,zero,2005104 <__swsetup_r+0x13c>
 2005080:	80c00417 	ldw	r3,16(r16)
 2005084:	11400214 	ori	r5,r2,8
 2005088:	8140030d 	sth	r5,12(r16)
 200508c:	2805883a 	mov	r2,r5
 2005090:	183fe11e 	bne	r3,zero,2005018 <__alt_mem_onchip_memory+0xfe004018>
 2005094:	1140a00c 	andi	r5,r2,640
 2005098:	01008004 	movi	r4,512
 200509c:	293fde26 	beq	r5,r4,2005018 <__alt_mem_onchip_memory+0xfe004018>
 20050a0:	8809883a 	mov	r4,r17
 20050a4:	800b883a 	mov	r5,r16
 20050a8:	200797c0 	call	200797c <__smakebuf_r>
 20050ac:	8080030b 	ldhu	r2,12(r16)
 20050b0:	80c00417 	ldw	r3,16(r16)
 20050b4:	003fd806 	br	2005018 <__alt_mem_onchip_memory+0xfe004018>
 20050b8:	80800517 	ldw	r2,20(r16)
 20050bc:	80000215 	stw	zero,8(r16)
 20050c0:	0085c83a 	sub	r2,zero,r2
 20050c4:	80800615 	stw	r2,24(r16)
 20050c8:	183fdd1e 	bne	r3,zero,2005040 <__alt_mem_onchip_memory+0xfe004040>
 20050cc:	8080030b 	ldhu	r2,12(r16)
 20050d0:	1080200c 	andi	r2,r2,128
 20050d4:	10bfffcc 	andi	r2,r2,65535
 20050d8:	10a0001c 	xori	r2,r2,32768
 20050dc:	10a00004 	addi	r2,r2,-32768
 20050e0:	103fd826 	beq	r2,zero,2005044 <__alt_mem_onchip_memory+0xfe004044>
 20050e4:	00bfffc4 	movi	r2,-1
 20050e8:	003fd606 	br	2005044 <__alt_mem_onchip_memory+0xfe004044>
 20050ec:	1009883a 	mov	r4,r2
 20050f0:	2006c080 	call	2006c08 <__sinit>
 20050f4:	003fc006 	br	2004ff8 <__alt_mem_onchip_memory+0xfe003ff8>
 20050f8:	0005883a 	mov	r2,zero
 20050fc:	80800215 	stw	r2,8(r16)
 2005100:	003fce06 	br	200503c <__alt_mem_onchip_memory+0xfe00403c>
 2005104:	81400c17 	ldw	r5,48(r16)
 2005108:	28000626 	beq	r5,zero,2005124 <__swsetup_r+0x15c>
 200510c:	80c01004 	addi	r3,r16,64
 2005110:	28c00326 	beq	r5,r3,2005120 <__swsetup_r+0x158>
 2005114:	8809883a 	mov	r4,r17
 2005118:	2006f8c0 	call	2006f8c <_free_r>
 200511c:	8080030b 	ldhu	r2,12(r16)
 2005120:	80000c15 	stw	zero,48(r16)
 2005124:	80c00417 	ldw	r3,16(r16)
 2005128:	013ff6c4 	movi	r4,-37
 200512c:	2084703a 	and	r2,r4,r2
 2005130:	80000115 	stw	zero,4(r16)
 2005134:	80c00015 	stw	r3,0(r16)
 2005138:	003fd206 	br	2005084 <__alt_mem_onchip_memory+0xfe004084>

0200513c <quorem>:
 200513c:	defff704 	addi	sp,sp,-36
 2005140:	dc400115 	stw	r17,4(sp)
 2005144:	20800417 	ldw	r2,16(r4)
 2005148:	2c400417 	ldw	r17,16(r5)
 200514c:	dd800615 	stw	r22,24(sp)
 2005150:	dd400515 	stw	r21,20(sp)
 2005154:	dfc00815 	stw	ra,32(sp)
 2005158:	ddc00715 	stw	r23,28(sp)
 200515c:	dd000415 	stw	r20,16(sp)
 2005160:	dcc00315 	stw	r19,12(sp)
 2005164:	dc800215 	stw	r18,8(sp)
 2005168:	dc000015 	stw	r16,0(sp)
 200516c:	202b883a 	mov	r21,r4
 2005170:	282d883a 	mov	r22,r5
 2005174:	14407116 	blt	r2,r17,200533c <quorem+0x200>
 2005178:	88800104 	addi	r2,r17,4
 200517c:	1085883a 	add	r2,r2,r2
 2005180:	1085883a 	add	r2,r2,r2
 2005184:	28a7883a 	add	r19,r5,r2
 2005188:	2085883a 	add	r2,r4,r2
 200518c:	15c00017 	ldw	r23,0(r2)
 2005190:	99400017 	ldw	r5,0(r19)
 2005194:	8c7fffc4 	addi	r17,r17,-1
 2005198:	b809883a 	mov	r4,r23
 200519c:	29400044 	addi	r5,r5,1
 20051a0:	200b5c00 	call	200b5c0 <__udivsi3>
 20051a4:	1025883a 	mov	r18,r2
 20051a8:	b4000504 	addi	r16,r22,20
 20051ac:	ad000504 	addi	r20,r21,20
 20051b0:	10002d26 	beq	r2,zero,2005268 <quorem+0x12c>
 20051b4:	800d883a 	mov	r6,r16
 20051b8:	a007883a 	mov	r3,r20
 20051bc:	000f883a 	mov	r7,zero
 20051c0:	0005883a 	mov	r2,zero
 20051c4:	32c00017 	ldw	r11,0(r6)
 20051c8:	1a400017 	ldw	r9,0(r3)
 20051cc:	31800104 	addi	r6,r6,4
 20051d0:	5abfffcc 	andi	r10,r11,65535
 20051d4:	5495383a 	mul	r10,r10,r18
 20051d8:	5816d43a 	srli	r11,r11,16
 20051dc:	4a3fffcc 	andi	r8,r9,65535
 20051e0:	3a95883a 	add	r10,r7,r10
 20051e4:	500ed43a 	srli	r7,r10,16
 20051e8:	5c97383a 	mul	r11,r11,r18
 20051ec:	4085883a 	add	r2,r8,r2
 20051f0:	52bfffcc 	andi	r10,r10,65535
 20051f4:	1291c83a 	sub	r8,r2,r10
 20051f8:	4804d43a 	srli	r2,r9,16
 20051fc:	3acf883a 	add	r7,r7,r11
 2005200:	4015d43a 	srai	r10,r8,16
 2005204:	393fffcc 	andi	r4,r7,65535
 2005208:	1105c83a 	sub	r2,r2,r4
 200520c:	1285883a 	add	r2,r2,r10
 2005210:	1880008d 	sth	r2,2(r3)
 2005214:	1a00000d 	sth	r8,0(r3)
 2005218:	380ed43a 	srli	r7,r7,16
 200521c:	1005d43a 	srai	r2,r2,16
 2005220:	18c00104 	addi	r3,r3,4
 2005224:	99bfe72e 	bgeu	r19,r6,20051c4 <__alt_mem_onchip_memory+0xfe0041c4>
 2005228:	b8000f1e 	bne	r23,zero,2005268 <quorem+0x12c>
 200522c:	88800144 	addi	r2,r17,5
 2005230:	1085883a 	add	r2,r2,r2
 2005234:	1085883a 	add	r2,r2,r2
 2005238:	a887883a 	add	r3,r21,r2
 200523c:	18bfff04 	addi	r2,r3,-4
 2005240:	a080082e 	bgeu	r20,r2,2005264 <quorem+0x128>
 2005244:	18ffff17 	ldw	r3,-4(r3)
 2005248:	18000326 	beq	r3,zero,2005258 <quorem+0x11c>
 200524c:	00000506 	br	2005264 <quorem+0x128>
 2005250:	10c00017 	ldw	r3,0(r2)
 2005254:	1800031e 	bne	r3,zero,2005264 <quorem+0x128>
 2005258:	10bfff04 	addi	r2,r2,-4
 200525c:	8c7fffc4 	addi	r17,r17,-1
 2005260:	a0bffb36 	bltu	r20,r2,2005250 <__alt_mem_onchip_memory+0xfe004250>
 2005264:	ac400415 	stw	r17,16(r21)
 2005268:	a809883a 	mov	r4,r21
 200526c:	b00b883a 	mov	r5,r22
 2005270:	2008f400 	call	2008f40 <__mcmp>
 2005274:	10002516 	blt	r2,zero,200530c <quorem+0x1d0>
 2005278:	94800044 	addi	r18,r18,1
 200527c:	a007883a 	mov	r3,r20
 2005280:	000b883a 	mov	r5,zero
 2005284:	1a000017 	ldw	r8,0(r3)
 2005288:	81c00017 	ldw	r7,0(r16)
 200528c:	84000104 	addi	r16,r16,4
 2005290:	41bfffcc 	andi	r6,r8,65535
 2005294:	38bfffcc 	andi	r2,r7,65535
 2005298:	314b883a 	add	r5,r6,r5
 200529c:	288dc83a 	sub	r6,r5,r2
 20052a0:	380ed43a 	srli	r7,r7,16
 20052a4:	400ad43a 	srli	r5,r8,16
 20052a8:	3005d43a 	srai	r2,r6,16
 20052ac:	1980000d 	sth	r6,0(r3)
 20052b0:	29cbc83a 	sub	r5,r5,r7
 20052b4:	288b883a 	add	r5,r5,r2
 20052b8:	1940008d 	sth	r5,2(r3)
 20052bc:	280bd43a 	srai	r5,r5,16
 20052c0:	18c00104 	addi	r3,r3,4
 20052c4:	9c3fef2e 	bgeu	r19,r16,2005284 <__alt_mem_onchip_memory+0xfe004284>
 20052c8:	88800144 	addi	r2,r17,5
 20052cc:	1085883a 	add	r2,r2,r2
 20052d0:	1085883a 	add	r2,r2,r2
 20052d4:	a885883a 	add	r2,r21,r2
 20052d8:	10c00017 	ldw	r3,0(r2)
 20052dc:	18000b1e 	bne	r3,zero,200530c <quorem+0x1d0>
 20052e0:	10ffff04 	addi	r3,r2,-4
 20052e4:	a0c0082e 	bgeu	r20,r3,2005308 <quorem+0x1cc>
 20052e8:	10bfff17 	ldw	r2,-4(r2)
 20052ec:	10000326 	beq	r2,zero,20052fc <quorem+0x1c0>
 20052f0:	00000506 	br	2005308 <quorem+0x1cc>
 20052f4:	18800017 	ldw	r2,0(r3)
 20052f8:	1000031e 	bne	r2,zero,2005308 <quorem+0x1cc>
 20052fc:	18ffff04 	addi	r3,r3,-4
 2005300:	8c7fffc4 	addi	r17,r17,-1
 2005304:	a0fffb36 	bltu	r20,r3,20052f4 <__alt_mem_onchip_memory+0xfe0042f4>
 2005308:	ac400415 	stw	r17,16(r21)
 200530c:	9005883a 	mov	r2,r18
 2005310:	dfc00817 	ldw	ra,32(sp)
 2005314:	ddc00717 	ldw	r23,28(sp)
 2005318:	dd800617 	ldw	r22,24(sp)
 200531c:	dd400517 	ldw	r21,20(sp)
 2005320:	dd000417 	ldw	r20,16(sp)
 2005324:	dcc00317 	ldw	r19,12(sp)
 2005328:	dc800217 	ldw	r18,8(sp)
 200532c:	dc400117 	ldw	r17,4(sp)
 2005330:	dc000017 	ldw	r16,0(sp)
 2005334:	dec00904 	addi	sp,sp,36
 2005338:	f800283a 	ret
 200533c:	0005883a 	mov	r2,zero
 2005340:	003ff306 	br	2005310 <__alt_mem_onchip_memory+0xfe004310>

02005344 <_dtoa_r>:
 2005344:	20801017 	ldw	r2,64(r4)
 2005348:	deffdf04 	addi	sp,sp,-132
 200534c:	dcc01a15 	stw	r19,104(sp)
 2005350:	dc801915 	stw	r18,100(sp)
 2005354:	dc401815 	stw	r17,96(sp)
 2005358:	dc001715 	stw	r16,92(sp)
 200535c:	dfc02015 	stw	ra,128(sp)
 2005360:	df001f15 	stw	fp,124(sp)
 2005364:	ddc01e15 	stw	r23,120(sp)
 2005368:	dd801d15 	stw	r22,116(sp)
 200536c:	dd401c15 	stw	r21,112(sp)
 2005370:	dd001b15 	stw	r20,108(sp)
 2005374:	d9400315 	stw	r5,12(sp)
 2005378:	d9c00415 	stw	r7,16(sp)
 200537c:	2021883a 	mov	r16,r4
 2005380:	3025883a 	mov	r18,r6
 2005384:	dcc02317 	ldw	r19,140(sp)
 2005388:	3023883a 	mov	r17,r6
 200538c:	10000826 	beq	r2,zero,20053b0 <_dtoa_r+0x6c>
 2005390:	20c01117 	ldw	r3,68(r4)
 2005394:	01800044 	movi	r6,1
 2005398:	100b883a 	mov	r5,r2
 200539c:	30cc983a 	sll	r6,r6,r3
 20053a0:	10c00115 	stw	r3,4(r2)
 20053a4:	11800215 	stw	r6,8(r2)
 20053a8:	20087440 	call	2008744 <_Bfree>
 20053ac:	80001015 	stw	zero,64(r16)
 20053b0:	90002f16 	blt	r18,zero,2005470 <_dtoa_r+0x12c>
 20053b4:	98000015 	stw	zero,0(r19)
 20053b8:	90dffc2c 	andhi	r3,r18,32752
 20053bc:	009ffc34 	movhi	r2,32752
 20053c0:	18801c26 	beq	r3,r2,2005434 <_dtoa_r+0xf0>
 20053c4:	d9000317 	ldw	r4,12(sp)
 20053c8:	880b883a 	mov	r5,r17
 20053cc:	000d883a 	mov	r6,zero
 20053d0:	000f883a 	mov	r7,zero
 20053d4:	200b0d00 	call	200b0d0 <__nedf2>
 20053d8:	10002c1e 	bne	r2,zero,200548c <_dtoa_r+0x148>
 20053dc:	d9002217 	ldw	r4,136(sp)
 20053e0:	d9c02417 	ldw	r7,144(sp)
 20053e4:	00800044 	movi	r2,1
 20053e8:	20800015 	stw	r2,0(r4)
 20053ec:	38019426 	beq	r7,zero,2005a40 <_dtoa_r+0x6fc>
